
kernel/kernel:     file format elf64-littleriscv


Disassembly of section .text:

0000000080000000 <_entry>:
    80000000:	00009117          	auipc	sp,0x9
    80000004:	a5010113          	addi	sp,sp,-1456 # 80008a50 <stack0>
    80000008:	6505                	lui	a0,0x1
    8000000a:	f14025f3          	csrr	a1,mhartid
    8000000e:	0585                	addi	a1,a1,1
    80000010:	02b50533          	mul	a0,a0,a1
    80000014:	912a                	add	sp,sp,a0
    80000016:	078000ef          	jal	ra,8000008e <start>

000000008000001a <spin>:
    8000001a:	a001                	j	8000001a <spin>

000000008000001c <timerinit>:
// at timervec in kernelvec.S,
// which turns them into software interrupts for
// devintr() in trap.c.
void
timerinit()
{
    8000001c:	1141                	addi	sp,sp,-16
    8000001e:	e422                	sd	s0,8(sp)
    80000020:	0800                	addi	s0,sp,16
// which hart (core) is this?
static inline uint64
r_mhartid()
{
  uint64 x;
  asm volatile("csrr %0, mhartid" : "=r" (x) );
    80000022:	f14027f3          	csrr	a5,mhartid
  // each CPU has a separate source of timer interrupts.
  int id = r_mhartid();
    80000026:	0007869b          	sext.w	a3,a5

  // ask the CLINT for a timer interrupt.
  int interval = 1000000; // cycles; about 1/10th second in qemu.
  *(uint64*)CLINT_MTIMECMP(id) = *(uint64*)CLINT_MTIME + interval;
    8000002a:	0037979b          	slliw	a5,a5,0x3
    8000002e:	02004737          	lui	a4,0x2004
    80000032:	97ba                	add	a5,a5,a4
    80000034:	0200c737          	lui	a4,0x200c
    80000038:	ff873583          	ld	a1,-8(a4) # 200bff8 <_entry-0x7dff4008>
    8000003c:	000f4637          	lui	a2,0xf4
    80000040:	24060613          	addi	a2,a2,576 # f4240 <_entry-0x7ff0bdc0>
    80000044:	95b2                	add	a1,a1,a2
    80000046:	e38c                	sd	a1,0(a5)

  // prepare information in scratch[] for timervec.
  // scratch[0..2] : space for timervec to save registers.
  // scratch[3] : address of CLINT MTIMECMP register.
  // scratch[4] : desired interval (in cycles) between timer interrupts.
  uint64 *scratch = &timer_scratch[id][0];
    80000048:	00269713          	slli	a4,a3,0x2
    8000004c:	9736                	add	a4,a4,a3
    8000004e:	00371693          	slli	a3,a4,0x3
    80000052:	00009717          	auipc	a4,0x9
    80000056:	8be70713          	addi	a4,a4,-1858 # 80008910 <timer_scratch>
    8000005a:	9736                	add	a4,a4,a3
  scratch[3] = CLINT_MTIMECMP(id);
    8000005c:	ef1c                	sd	a5,24(a4)
  scratch[4] = interval;
    8000005e:	f310                	sd	a2,32(a4)
}

static inline void 
w_mscratch(uint64 x)
{
  asm volatile("csrw mscratch, %0" : : "r" (x));
    80000060:	34071073          	csrw	mscratch,a4
  asm volatile("csrw mtvec, %0" : : "r" (x));
    80000064:	00006797          	auipc	a5,0x6
    80000068:	f8c78793          	addi	a5,a5,-116 # 80005ff0 <timervec>
    8000006c:	30579073          	csrw	mtvec,a5
  asm volatile("csrr %0, mstatus" : "=r" (x) );
    80000070:	300027f3          	csrr	a5,mstatus

  // set the machine-mode trap handler.
  w_mtvec((uint64)timervec);

  // enable machine-mode interrupts.
  w_mstatus(r_mstatus() | MSTATUS_MIE);
    80000074:	0087e793          	ori	a5,a5,8
  asm volatile("csrw mstatus, %0" : : "r" (x));
    80000078:	30079073          	csrw	mstatus,a5
  asm volatile("csrr %0, mie" : "=r" (x) );
    8000007c:	304027f3          	csrr	a5,mie

  // enable machine-mode timer interrupts.
  w_mie(r_mie() | MIE_MTIE);
    80000080:	0807e793          	ori	a5,a5,128
  asm volatile("csrw mie, %0" : : "r" (x));
    80000084:	30479073          	csrw	mie,a5
}
    80000088:	6422                	ld	s0,8(sp)
    8000008a:	0141                	addi	sp,sp,16
    8000008c:	8082                	ret

000000008000008e <start>:
{
    8000008e:	1141                	addi	sp,sp,-16
    80000090:	e406                	sd	ra,8(sp)
    80000092:	e022                	sd	s0,0(sp)
    80000094:	0800                	addi	s0,sp,16
  asm volatile("csrr %0, mstatus" : "=r" (x) );
    80000096:	300027f3          	csrr	a5,mstatus
  x &= ~MSTATUS_MPP_MASK;
    8000009a:	7779                	lui	a4,0xffffe
    8000009c:	7ff70713          	addi	a4,a4,2047 # ffffffffffffe7ff <end+0xffffffff7ffd79ff>
    800000a0:	8ff9                	and	a5,a5,a4
  x |= MSTATUS_MPP_S;
    800000a2:	6705                	lui	a4,0x1
    800000a4:	80070713          	addi	a4,a4,-2048 # 800 <_entry-0x7ffff800>
    800000a8:	8fd9                	or	a5,a5,a4
  asm volatile("csrw mstatus, %0" : : "r" (x));
    800000aa:	30079073          	csrw	mstatus,a5
  asm volatile("csrw mepc, %0" : : "r" (x));
    800000ae:	00001797          	auipc	a5,0x1
    800000b2:	dca78793          	addi	a5,a5,-566 # 80000e78 <main>
    800000b6:	34179073          	csrw	mepc,a5
  asm volatile("csrw satp, %0" : : "r" (x));
    800000ba:	4781                	li	a5,0
    800000bc:	18079073          	csrw	satp,a5
  asm volatile("csrw medeleg, %0" : : "r" (x));
    800000c0:	67c1                	lui	a5,0x10
    800000c2:	17fd                	addi	a5,a5,-1
    800000c4:	30279073          	csrw	medeleg,a5
  asm volatile("csrw mideleg, %0" : : "r" (x));
    800000c8:	30379073          	csrw	mideleg,a5
  asm volatile("csrr %0, sie" : "=r" (x) );
    800000cc:	104027f3          	csrr	a5,sie
  w_sie(r_sie() | SIE_SEIE | SIE_STIE | SIE_SSIE);
    800000d0:	2227e793          	ori	a5,a5,546
  asm volatile("csrw sie, %0" : : "r" (x));
    800000d4:	10479073          	csrw	sie,a5
  asm volatile("csrw pmpaddr0, %0" : : "r" (x));
    800000d8:	57fd                	li	a5,-1
    800000da:	83a9                	srli	a5,a5,0xa
    800000dc:	3b079073          	csrw	pmpaddr0,a5
  asm volatile("csrw pmpcfg0, %0" : : "r" (x));
    800000e0:	47bd                	li	a5,15
    800000e2:	3a079073          	csrw	pmpcfg0,a5
  timerinit();
    800000e6:	00000097          	auipc	ra,0x0
    800000ea:	f36080e7          	jalr	-202(ra) # 8000001c <timerinit>
  asm volatile("csrr %0, mhartid" : "=r" (x) );
    800000ee:	f14027f3          	csrr	a5,mhartid
  w_tp(id);
    800000f2:	2781                	sext.w	a5,a5
}

static inline void 
w_tp(uint64 x)
{
  asm volatile("mv tp, %0" : : "r" (x));
    800000f4:	823e                	mv	tp,a5
  asm volatile("mret");
    800000f6:	30200073          	mret
}
    800000fa:	60a2                	ld	ra,8(sp)
    800000fc:	6402                	ld	s0,0(sp)
    800000fe:	0141                	addi	sp,sp,16
    80000100:	8082                	ret

0000000080000102 <consolewrite>:
//
// user write()s to the console go here.
//
int
consolewrite(int user_src, uint64 src, int n)
{
    80000102:	715d                	addi	sp,sp,-80
    80000104:	e486                	sd	ra,72(sp)
    80000106:	e0a2                	sd	s0,64(sp)
    80000108:	fc26                	sd	s1,56(sp)
    8000010a:	f84a                	sd	s2,48(sp)
    8000010c:	f44e                	sd	s3,40(sp)
    8000010e:	f052                	sd	s4,32(sp)
    80000110:	ec56                	sd	s5,24(sp)
    80000112:	0880                	addi	s0,sp,80
  int i;

  for(i = 0; i < n; i++){
    80000114:	04c05663          	blez	a2,80000160 <consolewrite+0x5e>
    80000118:	8a2a                	mv	s4,a0
    8000011a:	84ae                	mv	s1,a1
    8000011c:	89b2                	mv	s3,a2
    8000011e:	4901                	li	s2,0
    char c;
    if(either_copyin(&c, user_src, src+i, 1) == -1)
    80000120:	5afd                	li	s5,-1
    80000122:	4685                	li	a3,1
    80000124:	8626                	mv	a2,s1
    80000126:	85d2                	mv	a1,s4
    80000128:	fbf40513          	addi	a0,s0,-65
    8000012c:	00002097          	auipc	ra,0x2
    80000130:	40a080e7          	jalr	1034(ra) # 80002536 <either_copyin>
    80000134:	01550c63          	beq	a0,s5,8000014c <consolewrite+0x4a>
      break;
    uartputc(c);
    80000138:	fbf44503          	lbu	a0,-65(s0)
    8000013c:	00000097          	auipc	ra,0x0
    80000140:	780080e7          	jalr	1920(ra) # 800008bc <uartputc>
  for(i = 0; i < n; i++){
    80000144:	2905                	addiw	s2,s2,1
    80000146:	0485                	addi	s1,s1,1
    80000148:	fd299de3          	bne	s3,s2,80000122 <consolewrite+0x20>
  }

  return i;
}
    8000014c:	854a                	mv	a0,s2
    8000014e:	60a6                	ld	ra,72(sp)
    80000150:	6406                	ld	s0,64(sp)
    80000152:	74e2                	ld	s1,56(sp)
    80000154:	7942                	ld	s2,48(sp)
    80000156:	79a2                	ld	s3,40(sp)
    80000158:	7a02                	ld	s4,32(sp)
    8000015a:	6ae2                	ld	s5,24(sp)
    8000015c:	6161                	addi	sp,sp,80
    8000015e:	8082                	ret
  for(i = 0; i < n; i++){
    80000160:	4901                	li	s2,0
    80000162:	b7ed                	j	8000014c <consolewrite+0x4a>

0000000080000164 <consoleread>:
// user_dist indicates whether dst is a user
// or kernel address.
//
int
consoleread(int user_dst, uint64 dst, int n)
{
    80000164:	7159                	addi	sp,sp,-112
    80000166:	f486                	sd	ra,104(sp)
    80000168:	f0a2                	sd	s0,96(sp)
    8000016a:	eca6                	sd	s1,88(sp)
    8000016c:	e8ca                	sd	s2,80(sp)
    8000016e:	e4ce                	sd	s3,72(sp)
    80000170:	e0d2                	sd	s4,64(sp)
    80000172:	fc56                	sd	s5,56(sp)
    80000174:	f85a                	sd	s6,48(sp)
    80000176:	f45e                	sd	s7,40(sp)
    80000178:	f062                	sd	s8,32(sp)
    8000017a:	ec66                	sd	s9,24(sp)
    8000017c:	e86a                	sd	s10,16(sp)
    8000017e:	1880                	addi	s0,sp,112
    80000180:	8aaa                	mv	s5,a0
    80000182:	8a2e                	mv	s4,a1
    80000184:	89b2                	mv	s3,a2
  uint target;
  int c;
  char cbuf;

  target = n;
    80000186:	00060b1b          	sext.w	s6,a2
  acquire(&cons.lock);
    8000018a:	00011517          	auipc	a0,0x11
    8000018e:	8c650513          	addi	a0,a0,-1850 # 80010a50 <cons>
    80000192:	00001097          	auipc	ra,0x1
    80000196:	a44080e7          	jalr	-1468(ra) # 80000bd6 <acquire>
  while(n > 0){
    // wait until interrupt handler has put some
    // input into cons.buffer.
    while(cons.r == cons.w){
    8000019a:	00011497          	auipc	s1,0x11
    8000019e:	8b648493          	addi	s1,s1,-1866 # 80010a50 <cons>
      if(killed(myproc())){
        release(&cons.lock);
        return -1;
      }
      sleep(&cons.r, &cons.lock);
    800001a2:	00011917          	auipc	s2,0x11
    800001a6:	94690913          	addi	s2,s2,-1722 # 80010ae8 <cons+0x98>
    }

    c = cons.buf[cons.r++ % INPUT_BUF_SIZE];

    if(c == C('D')){  // end-of-file
    800001aa:	4b91                	li	s7,4
      break;
    }

    // copy the input byte to the user-space buffer.
    cbuf = c;
    if(either_copyout(user_dst, dst, &cbuf, 1) == -1)
    800001ac:	5c7d                	li	s8,-1
      break;

    dst++;
    --n;

    if(c == '\n'){
    800001ae:	4ca9                	li	s9,10
  while(n > 0){
    800001b0:	07305b63          	blez	s3,80000226 <consoleread+0xc2>
    while(cons.r == cons.w){
    800001b4:	0984a783          	lw	a5,152(s1)
    800001b8:	09c4a703          	lw	a4,156(s1)
    800001bc:	02f71763          	bne	a4,a5,800001ea <consoleread+0x86>
      if(killed(myproc())){
    800001c0:	00001097          	auipc	ra,0x1
    800001c4:	7ec080e7          	jalr	2028(ra) # 800019ac <myproc>
    800001c8:	00002097          	auipc	ra,0x2
    800001cc:	1b8080e7          	jalr	440(ra) # 80002380 <killed>
    800001d0:	e535                	bnez	a0,8000023c <consoleread+0xd8>
      sleep(&cons.r, &cons.lock);
    800001d2:	85a6                	mv	a1,s1
    800001d4:	854a                	mv	a0,s2
    800001d6:	00002097          	auipc	ra,0x2
    800001da:	ef6080e7          	jalr	-266(ra) # 800020cc <sleep>
    while(cons.r == cons.w){
    800001de:	0984a783          	lw	a5,152(s1)
    800001e2:	09c4a703          	lw	a4,156(s1)
    800001e6:	fcf70de3          	beq	a4,a5,800001c0 <consoleread+0x5c>
    c = cons.buf[cons.r++ % INPUT_BUF_SIZE];
    800001ea:	0017871b          	addiw	a4,a5,1
    800001ee:	08e4ac23          	sw	a4,152(s1)
    800001f2:	07f7f713          	andi	a4,a5,127
    800001f6:	9726                	add	a4,a4,s1
    800001f8:	01874703          	lbu	a4,24(a4)
    800001fc:	00070d1b          	sext.w	s10,a4
    if(c == C('D')){  // end-of-file
    80000200:	077d0563          	beq	s10,s7,8000026a <consoleread+0x106>
    cbuf = c;
    80000204:	f8e40fa3          	sb	a4,-97(s0)
    if(either_copyout(user_dst, dst, &cbuf, 1) == -1)
    80000208:	4685                	li	a3,1
    8000020a:	f9f40613          	addi	a2,s0,-97
    8000020e:	85d2                	mv	a1,s4
    80000210:	8556                	mv	a0,s5
    80000212:	00002097          	auipc	ra,0x2
    80000216:	2ce080e7          	jalr	718(ra) # 800024e0 <either_copyout>
    8000021a:	01850663          	beq	a0,s8,80000226 <consoleread+0xc2>
    dst++;
    8000021e:	0a05                	addi	s4,s4,1
    --n;
    80000220:	39fd                	addiw	s3,s3,-1
    if(c == '\n'){
    80000222:	f99d17e3          	bne	s10,s9,800001b0 <consoleread+0x4c>
      // a whole line has arrived, return to
      // the user-level read().
      break;
    }
  }
  release(&cons.lock);
    80000226:	00011517          	auipc	a0,0x11
    8000022a:	82a50513          	addi	a0,a0,-2006 # 80010a50 <cons>
    8000022e:	00001097          	auipc	ra,0x1
    80000232:	a5c080e7          	jalr	-1444(ra) # 80000c8a <release>

  return target - n;
    80000236:	413b053b          	subw	a0,s6,s3
    8000023a:	a811                	j	8000024e <consoleread+0xea>
        release(&cons.lock);
    8000023c:	00011517          	auipc	a0,0x11
    80000240:	81450513          	addi	a0,a0,-2028 # 80010a50 <cons>
    80000244:	00001097          	auipc	ra,0x1
    80000248:	a46080e7          	jalr	-1466(ra) # 80000c8a <release>
        return -1;
    8000024c:	557d                	li	a0,-1
}
    8000024e:	70a6                	ld	ra,104(sp)
    80000250:	7406                	ld	s0,96(sp)
    80000252:	64e6                	ld	s1,88(sp)
    80000254:	6946                	ld	s2,80(sp)
    80000256:	69a6                	ld	s3,72(sp)
    80000258:	6a06                	ld	s4,64(sp)
    8000025a:	7ae2                	ld	s5,56(sp)
    8000025c:	7b42                	ld	s6,48(sp)
    8000025e:	7ba2                	ld	s7,40(sp)
    80000260:	7c02                	ld	s8,32(sp)
    80000262:	6ce2                	ld	s9,24(sp)
    80000264:	6d42                	ld	s10,16(sp)
    80000266:	6165                	addi	sp,sp,112
    80000268:	8082                	ret
      if(n < target){
    8000026a:	0009871b          	sext.w	a4,s3
    8000026e:	fb677ce3          	bgeu	a4,s6,80000226 <consoleread+0xc2>
        cons.r--;
    80000272:	00011717          	auipc	a4,0x11
    80000276:	86f72b23          	sw	a5,-1930(a4) # 80010ae8 <cons+0x98>
    8000027a:	b775                	j	80000226 <consoleread+0xc2>

000000008000027c <consputc>:
{
    8000027c:	1141                	addi	sp,sp,-16
    8000027e:	e406                	sd	ra,8(sp)
    80000280:	e022                	sd	s0,0(sp)
    80000282:	0800                	addi	s0,sp,16
  if(c == BACKSPACE){
    80000284:	10000793          	li	a5,256
    80000288:	00f50a63          	beq	a0,a5,8000029c <consputc+0x20>
    uartputc_sync(c);
    8000028c:	00000097          	auipc	ra,0x0
    80000290:	55e080e7          	jalr	1374(ra) # 800007ea <uartputc_sync>
}
    80000294:	60a2                	ld	ra,8(sp)
    80000296:	6402                	ld	s0,0(sp)
    80000298:	0141                	addi	sp,sp,16
    8000029a:	8082                	ret
    uartputc_sync('\b'); uartputc_sync(' '); uartputc_sync('\b');
    8000029c:	4521                	li	a0,8
    8000029e:	00000097          	auipc	ra,0x0
    800002a2:	54c080e7          	jalr	1356(ra) # 800007ea <uartputc_sync>
    800002a6:	02000513          	li	a0,32
    800002aa:	00000097          	auipc	ra,0x0
    800002ae:	540080e7          	jalr	1344(ra) # 800007ea <uartputc_sync>
    800002b2:	4521                	li	a0,8
    800002b4:	00000097          	auipc	ra,0x0
    800002b8:	536080e7          	jalr	1334(ra) # 800007ea <uartputc_sync>
    800002bc:	bfe1                	j	80000294 <consputc+0x18>

00000000800002be <consoleintr>:
// do erase/kill processing, append to cons.buf,
// wake up consoleread() if a whole line has arrived.
//
void
consoleintr(int c)
{
    800002be:	1101                	addi	sp,sp,-32
    800002c0:	ec06                	sd	ra,24(sp)
    800002c2:	e822                	sd	s0,16(sp)
    800002c4:	e426                	sd	s1,8(sp)
    800002c6:	e04a                	sd	s2,0(sp)
    800002c8:	1000                	addi	s0,sp,32
    800002ca:	84aa                	mv	s1,a0
  acquire(&cons.lock);
    800002cc:	00010517          	auipc	a0,0x10
    800002d0:	78450513          	addi	a0,a0,1924 # 80010a50 <cons>
    800002d4:	00001097          	auipc	ra,0x1
    800002d8:	902080e7          	jalr	-1790(ra) # 80000bd6 <acquire>

  switch(c){
    800002dc:	47d5                	li	a5,21
    800002de:	0af48663          	beq	s1,a5,8000038a <consoleintr+0xcc>
    800002e2:	0297ca63          	blt	a5,s1,80000316 <consoleintr+0x58>
    800002e6:	47a1                	li	a5,8
    800002e8:	0ef48763          	beq	s1,a5,800003d6 <consoleintr+0x118>
    800002ec:	47c1                	li	a5,16
    800002ee:	10f49a63          	bne	s1,a5,80000402 <consoleintr+0x144>
  case C('P'):  // Print process list.
    procdump();
    800002f2:	00002097          	auipc	ra,0x2
    800002f6:	29a080e7          	jalr	666(ra) # 8000258c <procdump>
      }
    }
    break;
  }
  
  release(&cons.lock);
    800002fa:	00010517          	auipc	a0,0x10
    800002fe:	75650513          	addi	a0,a0,1878 # 80010a50 <cons>
    80000302:	00001097          	auipc	ra,0x1
    80000306:	988080e7          	jalr	-1656(ra) # 80000c8a <release>
}
    8000030a:	60e2                	ld	ra,24(sp)
    8000030c:	6442                	ld	s0,16(sp)
    8000030e:	64a2                	ld	s1,8(sp)
    80000310:	6902                	ld	s2,0(sp)
    80000312:	6105                	addi	sp,sp,32
    80000314:	8082                	ret
  switch(c){
    80000316:	07f00793          	li	a5,127
    8000031a:	0af48e63          	beq	s1,a5,800003d6 <consoleintr+0x118>
    if(c != 0 && cons.e-cons.r < INPUT_BUF_SIZE){
    8000031e:	00010717          	auipc	a4,0x10
    80000322:	73270713          	addi	a4,a4,1842 # 80010a50 <cons>
    80000326:	0a072783          	lw	a5,160(a4)
    8000032a:	09872703          	lw	a4,152(a4)
    8000032e:	9f99                	subw	a5,a5,a4
    80000330:	07f00713          	li	a4,127
    80000334:	fcf763e3          	bltu	a4,a5,800002fa <consoleintr+0x3c>
      c = (c == '\r') ? '\n' : c;
    80000338:	47b5                	li	a5,13
    8000033a:	0cf48763          	beq	s1,a5,80000408 <consoleintr+0x14a>
      consputc(c);
    8000033e:	8526                	mv	a0,s1
    80000340:	00000097          	auipc	ra,0x0
    80000344:	f3c080e7          	jalr	-196(ra) # 8000027c <consputc>
      cons.buf[cons.e++ % INPUT_BUF_SIZE] = c;
    80000348:	00010797          	auipc	a5,0x10
    8000034c:	70878793          	addi	a5,a5,1800 # 80010a50 <cons>
    80000350:	0a07a683          	lw	a3,160(a5)
    80000354:	0016871b          	addiw	a4,a3,1
    80000358:	0007061b          	sext.w	a2,a4
    8000035c:	0ae7a023          	sw	a4,160(a5)
    80000360:	07f6f693          	andi	a3,a3,127
    80000364:	97b6                	add	a5,a5,a3
    80000366:	00978c23          	sb	s1,24(a5)
      if(c == '\n' || c == C('D') || cons.e-cons.r == INPUT_BUF_SIZE){
    8000036a:	47a9                	li	a5,10
    8000036c:	0cf48563          	beq	s1,a5,80000436 <consoleintr+0x178>
    80000370:	4791                	li	a5,4
    80000372:	0cf48263          	beq	s1,a5,80000436 <consoleintr+0x178>
    80000376:	00010797          	auipc	a5,0x10
    8000037a:	7727a783          	lw	a5,1906(a5) # 80010ae8 <cons+0x98>
    8000037e:	9f1d                	subw	a4,a4,a5
    80000380:	08000793          	li	a5,128
    80000384:	f6f71be3          	bne	a4,a5,800002fa <consoleintr+0x3c>
    80000388:	a07d                	j	80000436 <consoleintr+0x178>
    while(cons.e != cons.w &&
    8000038a:	00010717          	auipc	a4,0x10
    8000038e:	6c670713          	addi	a4,a4,1734 # 80010a50 <cons>
    80000392:	0a072783          	lw	a5,160(a4)
    80000396:	09c72703          	lw	a4,156(a4)
          cons.buf[(cons.e-1) % INPUT_BUF_SIZE] != '\n'){
    8000039a:	00010497          	auipc	s1,0x10
    8000039e:	6b648493          	addi	s1,s1,1718 # 80010a50 <cons>
    while(cons.e != cons.w &&
    800003a2:	4929                	li	s2,10
    800003a4:	f4f70be3          	beq	a4,a5,800002fa <consoleintr+0x3c>
          cons.buf[(cons.e-1) % INPUT_BUF_SIZE] != '\n'){
    800003a8:	37fd                	addiw	a5,a5,-1
    800003aa:	07f7f713          	andi	a4,a5,127
    800003ae:	9726                	add	a4,a4,s1
    while(cons.e != cons.w &&
    800003b0:	01874703          	lbu	a4,24(a4)
    800003b4:	f52703e3          	beq	a4,s2,800002fa <consoleintr+0x3c>
      cons.e--;
    800003b8:	0af4a023          	sw	a5,160(s1)
      consputc(BACKSPACE);
    800003bc:	10000513          	li	a0,256
    800003c0:	00000097          	auipc	ra,0x0
    800003c4:	ebc080e7          	jalr	-324(ra) # 8000027c <consputc>
    while(cons.e != cons.w &&
    800003c8:	0a04a783          	lw	a5,160(s1)
    800003cc:	09c4a703          	lw	a4,156(s1)
    800003d0:	fcf71ce3          	bne	a4,a5,800003a8 <consoleintr+0xea>
    800003d4:	b71d                	j	800002fa <consoleintr+0x3c>
    if(cons.e != cons.w){
    800003d6:	00010717          	auipc	a4,0x10
    800003da:	67a70713          	addi	a4,a4,1658 # 80010a50 <cons>
    800003de:	0a072783          	lw	a5,160(a4)
    800003e2:	09c72703          	lw	a4,156(a4)
    800003e6:	f0f70ae3          	beq	a4,a5,800002fa <consoleintr+0x3c>
      cons.e--;
    800003ea:	37fd                	addiw	a5,a5,-1
    800003ec:	00010717          	auipc	a4,0x10
    800003f0:	70f72223          	sw	a5,1796(a4) # 80010af0 <cons+0xa0>
      consputc(BACKSPACE);
    800003f4:	10000513          	li	a0,256
    800003f8:	00000097          	auipc	ra,0x0
    800003fc:	e84080e7          	jalr	-380(ra) # 8000027c <consputc>
    80000400:	bded                	j	800002fa <consoleintr+0x3c>
    if(c != 0 && cons.e-cons.r < INPUT_BUF_SIZE){
    80000402:	ee048ce3          	beqz	s1,800002fa <consoleintr+0x3c>
    80000406:	bf21                	j	8000031e <consoleintr+0x60>
      consputc(c);
    80000408:	4529                	li	a0,10
    8000040a:	00000097          	auipc	ra,0x0
    8000040e:	e72080e7          	jalr	-398(ra) # 8000027c <consputc>
      cons.buf[cons.e++ % INPUT_BUF_SIZE] = c;
    80000412:	00010797          	auipc	a5,0x10
    80000416:	63e78793          	addi	a5,a5,1598 # 80010a50 <cons>
    8000041a:	0a07a703          	lw	a4,160(a5)
    8000041e:	0017069b          	addiw	a3,a4,1
    80000422:	0006861b          	sext.w	a2,a3
    80000426:	0ad7a023          	sw	a3,160(a5)
    8000042a:	07f77713          	andi	a4,a4,127
    8000042e:	97ba                	add	a5,a5,a4
    80000430:	4729                	li	a4,10
    80000432:	00e78c23          	sb	a4,24(a5)
        cons.w = cons.e;
    80000436:	00010797          	auipc	a5,0x10
    8000043a:	6ac7ab23          	sw	a2,1718(a5) # 80010aec <cons+0x9c>
        wakeup(&cons.r);
    8000043e:	00010517          	auipc	a0,0x10
    80000442:	6aa50513          	addi	a0,a0,1706 # 80010ae8 <cons+0x98>
    80000446:	00002097          	auipc	ra,0x2
    8000044a:	cea080e7          	jalr	-790(ra) # 80002130 <wakeup>
    8000044e:	b575                	j	800002fa <consoleintr+0x3c>

0000000080000450 <consoleinit>:

void
consoleinit(void)
{
    80000450:	1141                	addi	sp,sp,-16
    80000452:	e406                	sd	ra,8(sp)
    80000454:	e022                	sd	s0,0(sp)
    80000456:	0800                	addi	s0,sp,16
  initlock(&cons.lock, "cons");
    80000458:	00008597          	auipc	a1,0x8
    8000045c:	bb858593          	addi	a1,a1,-1096 # 80008010 <etext+0x10>
    80000460:	00010517          	auipc	a0,0x10
    80000464:	5f050513          	addi	a0,a0,1520 # 80010a50 <cons>
    80000468:	00000097          	auipc	ra,0x0
    8000046c:	6de080e7          	jalr	1758(ra) # 80000b46 <initlock>

  uartinit();
    80000470:	00000097          	auipc	ra,0x0
    80000474:	32a080e7          	jalr	810(ra) # 8000079a <uartinit>

  // connect read and write system calls
  // to consoleread and consolewrite.
  devsw[CONSOLE].read = consoleread;
    80000478:	00025797          	auipc	a5,0x25
    8000047c:	7f078793          	addi	a5,a5,2032 # 80025c68 <devsw>
    80000480:	00000717          	auipc	a4,0x0
    80000484:	ce470713          	addi	a4,a4,-796 # 80000164 <consoleread>
    80000488:	eb98                	sd	a4,16(a5)
  devsw[CONSOLE].write = consolewrite;
    8000048a:	00000717          	auipc	a4,0x0
    8000048e:	c7870713          	addi	a4,a4,-904 # 80000102 <consolewrite>
    80000492:	ef98                	sd	a4,24(a5)
}
    80000494:	60a2                	ld	ra,8(sp)
    80000496:	6402                	ld	s0,0(sp)
    80000498:	0141                	addi	sp,sp,16
    8000049a:	8082                	ret

000000008000049c <printint>:

static char digits[] = "0123456789abcdef";

static void
printint(int xx, int base, int sign)
{
    8000049c:	7179                	addi	sp,sp,-48
    8000049e:	f406                	sd	ra,40(sp)
    800004a0:	f022                	sd	s0,32(sp)
    800004a2:	ec26                	sd	s1,24(sp)
    800004a4:	e84a                	sd	s2,16(sp)
    800004a6:	1800                	addi	s0,sp,48
  char buf[16];
  int i;
  uint x;

  if(sign && (sign = xx < 0))
    800004a8:	c219                	beqz	a2,800004ae <printint+0x12>
    800004aa:	08054663          	bltz	a0,80000536 <printint+0x9a>
    x = -xx;
  else
    x = xx;
    800004ae:	2501                	sext.w	a0,a0
    800004b0:	4881                	li	a7,0
    800004b2:	fd040693          	addi	a3,s0,-48

  i = 0;
    800004b6:	4701                	li	a4,0
  do {
    buf[i++] = digits[x % base];
    800004b8:	2581                	sext.w	a1,a1
    800004ba:	00008617          	auipc	a2,0x8
    800004be:	b8660613          	addi	a2,a2,-1146 # 80008040 <digits>
    800004c2:	883a                	mv	a6,a4
    800004c4:	2705                	addiw	a4,a4,1
    800004c6:	02b577bb          	remuw	a5,a0,a1
    800004ca:	1782                	slli	a5,a5,0x20
    800004cc:	9381                	srli	a5,a5,0x20
    800004ce:	97b2                	add	a5,a5,a2
    800004d0:	0007c783          	lbu	a5,0(a5)
    800004d4:	00f68023          	sb	a5,0(a3)
  } while((x /= base) != 0);
    800004d8:	0005079b          	sext.w	a5,a0
    800004dc:	02b5553b          	divuw	a0,a0,a1
    800004e0:	0685                	addi	a3,a3,1
    800004e2:	feb7f0e3          	bgeu	a5,a1,800004c2 <printint+0x26>

  if(sign)
    800004e6:	00088b63          	beqz	a7,800004fc <printint+0x60>
    buf[i++] = '-';
    800004ea:	fe040793          	addi	a5,s0,-32
    800004ee:	973e                	add	a4,a4,a5
    800004f0:	02d00793          	li	a5,45
    800004f4:	fef70823          	sb	a5,-16(a4)
    800004f8:	0028071b          	addiw	a4,a6,2

  while(--i >= 0)
    800004fc:	02e05763          	blez	a4,8000052a <printint+0x8e>
    80000500:	fd040793          	addi	a5,s0,-48
    80000504:	00e784b3          	add	s1,a5,a4
    80000508:	fff78913          	addi	s2,a5,-1
    8000050c:	993a                	add	s2,s2,a4
    8000050e:	377d                	addiw	a4,a4,-1
    80000510:	1702                	slli	a4,a4,0x20
    80000512:	9301                	srli	a4,a4,0x20
    80000514:	40e90933          	sub	s2,s2,a4
    consputc(buf[i]);
    80000518:	fff4c503          	lbu	a0,-1(s1)
    8000051c:	00000097          	auipc	ra,0x0
    80000520:	d60080e7          	jalr	-672(ra) # 8000027c <consputc>
  while(--i >= 0)
    80000524:	14fd                	addi	s1,s1,-1
    80000526:	ff2499e3          	bne	s1,s2,80000518 <printint+0x7c>
}
    8000052a:	70a2                	ld	ra,40(sp)
    8000052c:	7402                	ld	s0,32(sp)
    8000052e:	64e2                	ld	s1,24(sp)
    80000530:	6942                	ld	s2,16(sp)
    80000532:	6145                	addi	sp,sp,48
    80000534:	8082                	ret
    x = -xx;
    80000536:	40a0053b          	negw	a0,a0
  if(sign && (sign = xx < 0))
    8000053a:	4885                	li	a7,1
    x = -xx;
    8000053c:	bf9d                	j	800004b2 <printint+0x16>

000000008000053e <panic>:
    release(&pr.lock);
}

void
panic(char *s)
{
    8000053e:	1101                	addi	sp,sp,-32
    80000540:	ec06                	sd	ra,24(sp)
    80000542:	e822                	sd	s0,16(sp)
    80000544:	e426                	sd	s1,8(sp)
    80000546:	1000                	addi	s0,sp,32
    80000548:	84aa                	mv	s1,a0
  pr.locking = 0;
    8000054a:	00010797          	auipc	a5,0x10
    8000054e:	5c07a323          	sw	zero,1478(a5) # 80010b10 <pr+0x18>
  printf("panic: ");
    80000552:	00008517          	auipc	a0,0x8
    80000556:	ac650513          	addi	a0,a0,-1338 # 80008018 <etext+0x18>
    8000055a:	00000097          	auipc	ra,0x0
    8000055e:	02e080e7          	jalr	46(ra) # 80000588 <printf>
  printf(s);
    80000562:	8526                	mv	a0,s1
    80000564:	00000097          	auipc	ra,0x0
    80000568:	024080e7          	jalr	36(ra) # 80000588 <printf>
  printf("\n");
    8000056c:	00008517          	auipc	a0,0x8
    80000570:	b5c50513          	addi	a0,a0,-1188 # 800080c8 <digits+0x88>
    80000574:	00000097          	auipc	ra,0x0
    80000578:	014080e7          	jalr	20(ra) # 80000588 <printf>
  panicked = 1; // freeze uart output from other CPUs
    8000057c:	4785                	li	a5,1
    8000057e:	00008717          	auipc	a4,0x8
    80000582:	32f72923          	sw	a5,818(a4) # 800088b0 <panicked>
  for(;;)
    80000586:	a001                	j	80000586 <panic+0x48>

0000000080000588 <printf>:
{
    80000588:	7131                	addi	sp,sp,-192
    8000058a:	fc86                	sd	ra,120(sp)
    8000058c:	f8a2                	sd	s0,112(sp)
    8000058e:	f4a6                	sd	s1,104(sp)
    80000590:	f0ca                	sd	s2,96(sp)
    80000592:	ecce                	sd	s3,88(sp)
    80000594:	e8d2                	sd	s4,80(sp)
    80000596:	e4d6                	sd	s5,72(sp)
    80000598:	e0da                	sd	s6,64(sp)
    8000059a:	fc5e                	sd	s7,56(sp)
    8000059c:	f862                	sd	s8,48(sp)
    8000059e:	f466                	sd	s9,40(sp)
    800005a0:	f06a                	sd	s10,32(sp)
    800005a2:	ec6e                	sd	s11,24(sp)
    800005a4:	0100                	addi	s0,sp,128
    800005a6:	8a2a                	mv	s4,a0
    800005a8:	e40c                	sd	a1,8(s0)
    800005aa:	e810                	sd	a2,16(s0)
    800005ac:	ec14                	sd	a3,24(s0)
    800005ae:	f018                	sd	a4,32(s0)
    800005b0:	f41c                	sd	a5,40(s0)
    800005b2:	03043823          	sd	a6,48(s0)
    800005b6:	03143c23          	sd	a7,56(s0)
  locking = pr.locking;
    800005ba:	00010d97          	auipc	s11,0x10
    800005be:	556dad83          	lw	s11,1366(s11) # 80010b10 <pr+0x18>
  if(locking)
    800005c2:	020d9b63          	bnez	s11,800005f8 <printf+0x70>
  if (fmt == 0)
    800005c6:	040a0263          	beqz	s4,8000060a <printf+0x82>
  va_start(ap, fmt);
    800005ca:	00840793          	addi	a5,s0,8
    800005ce:	f8f43423          	sd	a5,-120(s0)
  for(i = 0; (c = fmt[i] & 0xff) != 0; i++){
    800005d2:	000a4503          	lbu	a0,0(s4)
    800005d6:	14050f63          	beqz	a0,80000734 <printf+0x1ac>
    800005da:	4981                	li	s3,0
    if(c != '%'){
    800005dc:	02500a93          	li	s5,37
    switch(c){
    800005e0:	07000b93          	li	s7,112
  consputc('x');
    800005e4:	4d41                	li	s10,16
    consputc(digits[x >> (sizeof(uint64) * 8 - 4)]);
    800005e6:	00008b17          	auipc	s6,0x8
    800005ea:	a5ab0b13          	addi	s6,s6,-1446 # 80008040 <digits>
    switch(c){
    800005ee:	07300c93          	li	s9,115
    800005f2:	06400c13          	li	s8,100
    800005f6:	a82d                	j	80000630 <printf+0xa8>
    acquire(&pr.lock);
    800005f8:	00010517          	auipc	a0,0x10
    800005fc:	50050513          	addi	a0,a0,1280 # 80010af8 <pr>
    80000600:	00000097          	auipc	ra,0x0
    80000604:	5d6080e7          	jalr	1494(ra) # 80000bd6 <acquire>
    80000608:	bf7d                	j	800005c6 <printf+0x3e>
    panic("null fmt");
    8000060a:	00008517          	auipc	a0,0x8
    8000060e:	a1e50513          	addi	a0,a0,-1506 # 80008028 <etext+0x28>
    80000612:	00000097          	auipc	ra,0x0
    80000616:	f2c080e7          	jalr	-212(ra) # 8000053e <panic>
      consputc(c);
    8000061a:	00000097          	auipc	ra,0x0
    8000061e:	c62080e7          	jalr	-926(ra) # 8000027c <consputc>
  for(i = 0; (c = fmt[i] & 0xff) != 0; i++){
    80000622:	2985                	addiw	s3,s3,1
    80000624:	013a07b3          	add	a5,s4,s3
    80000628:	0007c503          	lbu	a0,0(a5)
    8000062c:	10050463          	beqz	a0,80000734 <printf+0x1ac>
    if(c != '%'){
    80000630:	ff5515e3          	bne	a0,s5,8000061a <printf+0x92>
    c = fmt[++i] & 0xff;
    80000634:	2985                	addiw	s3,s3,1
    80000636:	013a07b3          	add	a5,s4,s3
    8000063a:	0007c783          	lbu	a5,0(a5)
    8000063e:	0007849b          	sext.w	s1,a5
    if(c == 0)
    80000642:	cbed                	beqz	a5,80000734 <printf+0x1ac>
    switch(c){
    80000644:	05778a63          	beq	a5,s7,80000698 <printf+0x110>
    80000648:	02fbf663          	bgeu	s7,a5,80000674 <printf+0xec>
    8000064c:	09978863          	beq	a5,s9,800006dc <printf+0x154>
    80000650:	07800713          	li	a4,120
    80000654:	0ce79563          	bne	a5,a4,8000071e <printf+0x196>
      printint(va_arg(ap, int), 16, 1);
    80000658:	f8843783          	ld	a5,-120(s0)
    8000065c:	00878713          	addi	a4,a5,8
    80000660:	f8e43423          	sd	a4,-120(s0)
    80000664:	4605                	li	a2,1
    80000666:	85ea                	mv	a1,s10
    80000668:	4388                	lw	a0,0(a5)
    8000066a:	00000097          	auipc	ra,0x0
    8000066e:	e32080e7          	jalr	-462(ra) # 8000049c <printint>
      break;
    80000672:	bf45                	j	80000622 <printf+0x9a>
    switch(c){
    80000674:	09578f63          	beq	a5,s5,80000712 <printf+0x18a>
    80000678:	0b879363          	bne	a5,s8,8000071e <printf+0x196>
      printint(va_arg(ap, int), 10, 1);
    8000067c:	f8843783          	ld	a5,-120(s0)
    80000680:	00878713          	addi	a4,a5,8
    80000684:	f8e43423          	sd	a4,-120(s0)
    80000688:	4605                	li	a2,1
    8000068a:	45a9                	li	a1,10
    8000068c:	4388                	lw	a0,0(a5)
    8000068e:	00000097          	auipc	ra,0x0
    80000692:	e0e080e7          	jalr	-498(ra) # 8000049c <printint>
      break;
    80000696:	b771                	j	80000622 <printf+0x9a>
      printptr(va_arg(ap, uint64));
    80000698:	f8843783          	ld	a5,-120(s0)
    8000069c:	00878713          	addi	a4,a5,8
    800006a0:	f8e43423          	sd	a4,-120(s0)
    800006a4:	0007b903          	ld	s2,0(a5)
  consputc('0');
    800006a8:	03000513          	li	a0,48
    800006ac:	00000097          	auipc	ra,0x0
    800006b0:	bd0080e7          	jalr	-1072(ra) # 8000027c <consputc>
  consputc('x');
    800006b4:	07800513          	li	a0,120
    800006b8:	00000097          	auipc	ra,0x0
    800006bc:	bc4080e7          	jalr	-1084(ra) # 8000027c <consputc>
    800006c0:	84ea                	mv	s1,s10
    consputc(digits[x >> (sizeof(uint64) * 8 - 4)]);
    800006c2:	03c95793          	srli	a5,s2,0x3c
    800006c6:	97da                	add	a5,a5,s6
    800006c8:	0007c503          	lbu	a0,0(a5)
    800006cc:	00000097          	auipc	ra,0x0
    800006d0:	bb0080e7          	jalr	-1104(ra) # 8000027c <consputc>
  for (i = 0; i < (sizeof(uint64) * 2); i++, x <<= 4)
    800006d4:	0912                	slli	s2,s2,0x4
    800006d6:	34fd                	addiw	s1,s1,-1
    800006d8:	f4ed                	bnez	s1,800006c2 <printf+0x13a>
    800006da:	b7a1                	j	80000622 <printf+0x9a>
      if((s = va_arg(ap, char*)) == 0)
    800006dc:	f8843783          	ld	a5,-120(s0)
    800006e0:	00878713          	addi	a4,a5,8
    800006e4:	f8e43423          	sd	a4,-120(s0)
    800006e8:	6384                	ld	s1,0(a5)
    800006ea:	cc89                	beqz	s1,80000704 <printf+0x17c>
      for(; *s; s++)
    800006ec:	0004c503          	lbu	a0,0(s1)
    800006f0:	d90d                	beqz	a0,80000622 <printf+0x9a>
        consputc(*s);
    800006f2:	00000097          	auipc	ra,0x0
    800006f6:	b8a080e7          	jalr	-1142(ra) # 8000027c <consputc>
      for(; *s; s++)
    800006fa:	0485                	addi	s1,s1,1
    800006fc:	0004c503          	lbu	a0,0(s1)
    80000700:	f96d                	bnez	a0,800006f2 <printf+0x16a>
    80000702:	b705                	j	80000622 <printf+0x9a>
        s = "(null)";
    80000704:	00008497          	auipc	s1,0x8
    80000708:	91c48493          	addi	s1,s1,-1764 # 80008020 <etext+0x20>
      for(; *s; s++)
    8000070c:	02800513          	li	a0,40
    80000710:	b7cd                	j	800006f2 <printf+0x16a>
      consputc('%');
    80000712:	8556                	mv	a0,s5
    80000714:	00000097          	auipc	ra,0x0
    80000718:	b68080e7          	jalr	-1176(ra) # 8000027c <consputc>
      break;
    8000071c:	b719                	j	80000622 <printf+0x9a>
      consputc('%');
    8000071e:	8556                	mv	a0,s5
    80000720:	00000097          	auipc	ra,0x0
    80000724:	b5c080e7          	jalr	-1188(ra) # 8000027c <consputc>
      consputc(c);
    80000728:	8526                	mv	a0,s1
    8000072a:	00000097          	auipc	ra,0x0
    8000072e:	b52080e7          	jalr	-1198(ra) # 8000027c <consputc>
      break;
    80000732:	bdc5                	j	80000622 <printf+0x9a>
  if(locking)
    80000734:	020d9163          	bnez	s11,80000756 <printf+0x1ce>
}
    80000738:	70e6                	ld	ra,120(sp)
    8000073a:	7446                	ld	s0,112(sp)
    8000073c:	74a6                	ld	s1,104(sp)
    8000073e:	7906                	ld	s2,96(sp)
    80000740:	69e6                	ld	s3,88(sp)
    80000742:	6a46                	ld	s4,80(sp)
    80000744:	6aa6                	ld	s5,72(sp)
    80000746:	6b06                	ld	s6,64(sp)
    80000748:	7be2                	ld	s7,56(sp)
    8000074a:	7c42                	ld	s8,48(sp)
    8000074c:	7ca2                	ld	s9,40(sp)
    8000074e:	7d02                	ld	s10,32(sp)
    80000750:	6de2                	ld	s11,24(sp)
    80000752:	6129                	addi	sp,sp,192
    80000754:	8082                	ret
    release(&pr.lock);
    80000756:	00010517          	auipc	a0,0x10
    8000075a:	3a250513          	addi	a0,a0,930 # 80010af8 <pr>
    8000075e:	00000097          	auipc	ra,0x0
    80000762:	52c080e7          	jalr	1324(ra) # 80000c8a <release>
}
    80000766:	bfc9                	j	80000738 <printf+0x1b0>

0000000080000768 <printfinit>:
    ;
}

void
printfinit(void)
{
    80000768:	1101                	addi	sp,sp,-32
    8000076a:	ec06                	sd	ra,24(sp)
    8000076c:	e822                	sd	s0,16(sp)
    8000076e:	e426                	sd	s1,8(sp)
    80000770:	1000                	addi	s0,sp,32
  initlock(&pr.lock, "pr");
    80000772:	00010497          	auipc	s1,0x10
    80000776:	38648493          	addi	s1,s1,902 # 80010af8 <pr>
    8000077a:	00008597          	auipc	a1,0x8
    8000077e:	8be58593          	addi	a1,a1,-1858 # 80008038 <etext+0x38>
    80000782:	8526                	mv	a0,s1
    80000784:	00000097          	auipc	ra,0x0
    80000788:	3c2080e7          	jalr	962(ra) # 80000b46 <initlock>
  pr.locking = 1;
    8000078c:	4785                	li	a5,1
    8000078e:	cc9c                	sw	a5,24(s1)
}
    80000790:	60e2                	ld	ra,24(sp)
    80000792:	6442                	ld	s0,16(sp)
    80000794:	64a2                	ld	s1,8(sp)
    80000796:	6105                	addi	sp,sp,32
    80000798:	8082                	ret

000000008000079a <uartinit>:

void uartstart();

void
uartinit(void)
{
    8000079a:	1141                	addi	sp,sp,-16
    8000079c:	e406                	sd	ra,8(sp)
    8000079e:	e022                	sd	s0,0(sp)
    800007a0:	0800                	addi	s0,sp,16
  // disable interrupts.
  WriteReg(IER, 0x00);
    800007a2:	100007b7          	lui	a5,0x10000
    800007a6:	000780a3          	sb	zero,1(a5) # 10000001 <_entry-0x6fffffff>

  // special mode to set baud rate.
  WriteReg(LCR, LCR_BAUD_LATCH);
    800007aa:	f8000713          	li	a4,-128
    800007ae:	00e781a3          	sb	a4,3(a5)

  // LSB for baud rate of 38.4K.
  WriteReg(0, 0x03);
    800007b2:	470d                	li	a4,3
    800007b4:	00e78023          	sb	a4,0(a5)

  // MSB for baud rate of 38.4K.
  WriteReg(1, 0x00);
    800007b8:	000780a3          	sb	zero,1(a5)

  // leave set-baud mode,
  // and set word length to 8 bits, no parity.
  WriteReg(LCR, LCR_EIGHT_BITS);
    800007bc:	00e781a3          	sb	a4,3(a5)

  // reset and enable FIFOs.
  WriteReg(FCR, FCR_FIFO_ENABLE | FCR_FIFO_CLEAR);
    800007c0:	469d                	li	a3,7
    800007c2:	00d78123          	sb	a3,2(a5)

  // enable transmit and receive interrupts.
  WriteReg(IER, IER_TX_ENABLE | IER_RX_ENABLE);
    800007c6:	00e780a3          	sb	a4,1(a5)

  initlock(&uart_tx_lock, "uart");
    800007ca:	00008597          	auipc	a1,0x8
    800007ce:	88e58593          	addi	a1,a1,-1906 # 80008058 <digits+0x18>
    800007d2:	00010517          	auipc	a0,0x10
    800007d6:	34650513          	addi	a0,a0,838 # 80010b18 <uart_tx_lock>
    800007da:	00000097          	auipc	ra,0x0
    800007de:	36c080e7          	jalr	876(ra) # 80000b46 <initlock>
}
    800007e2:	60a2                	ld	ra,8(sp)
    800007e4:	6402                	ld	s0,0(sp)
    800007e6:	0141                	addi	sp,sp,16
    800007e8:	8082                	ret

00000000800007ea <uartputc_sync>:
// use interrupts, for use by kernel printf() and
// to echo characters. it spins waiting for the uart's
// output register to be empty.
void
uartputc_sync(int c)
{
    800007ea:	1101                	addi	sp,sp,-32
    800007ec:	ec06                	sd	ra,24(sp)
    800007ee:	e822                	sd	s0,16(sp)
    800007f0:	e426                	sd	s1,8(sp)
    800007f2:	1000                	addi	s0,sp,32
    800007f4:	84aa                	mv	s1,a0
  push_off();
    800007f6:	00000097          	auipc	ra,0x0
    800007fa:	394080e7          	jalr	916(ra) # 80000b8a <push_off>

  if(panicked){
    800007fe:	00008797          	auipc	a5,0x8
    80000802:	0b27a783          	lw	a5,178(a5) # 800088b0 <panicked>
    for(;;)
      ;
  }

  // wait for Transmit Holding Empty to be set in LSR.
  while((ReadReg(LSR) & LSR_TX_IDLE) == 0)
    80000806:	10000737          	lui	a4,0x10000
  if(panicked){
    8000080a:	c391                	beqz	a5,8000080e <uartputc_sync+0x24>
    for(;;)
    8000080c:	a001                	j	8000080c <uartputc_sync+0x22>
  while((ReadReg(LSR) & LSR_TX_IDLE) == 0)
    8000080e:	00574783          	lbu	a5,5(a4) # 10000005 <_entry-0x6ffffffb>
    80000812:	0207f793          	andi	a5,a5,32
    80000816:	dfe5                	beqz	a5,8000080e <uartputc_sync+0x24>
    ;
  WriteReg(THR, c);
    80000818:	0ff4f513          	andi	a0,s1,255
    8000081c:	100007b7          	lui	a5,0x10000
    80000820:	00a78023          	sb	a0,0(a5) # 10000000 <_entry-0x70000000>

  pop_off();
    80000824:	00000097          	auipc	ra,0x0
    80000828:	406080e7          	jalr	1030(ra) # 80000c2a <pop_off>
}
    8000082c:	60e2                	ld	ra,24(sp)
    8000082e:	6442                	ld	s0,16(sp)
    80000830:	64a2                	ld	s1,8(sp)
    80000832:	6105                	addi	sp,sp,32
    80000834:	8082                	ret

0000000080000836 <uartstart>:
// called from both the top- and bottom-half.
void
uartstart()
{
  while(1){
    if(uart_tx_w == uart_tx_r){
    80000836:	00008797          	auipc	a5,0x8
    8000083a:	0827b783          	ld	a5,130(a5) # 800088b8 <uart_tx_r>
    8000083e:	00008717          	auipc	a4,0x8
    80000842:	08273703          	ld	a4,130(a4) # 800088c0 <uart_tx_w>
    80000846:	06f70a63          	beq	a4,a5,800008ba <uartstart+0x84>
{
    8000084a:	7139                	addi	sp,sp,-64
    8000084c:	fc06                	sd	ra,56(sp)
    8000084e:	f822                	sd	s0,48(sp)
    80000850:	f426                	sd	s1,40(sp)
    80000852:	f04a                	sd	s2,32(sp)
    80000854:	ec4e                	sd	s3,24(sp)
    80000856:	e852                	sd	s4,16(sp)
    80000858:	e456                	sd	s5,8(sp)
    8000085a:	0080                	addi	s0,sp,64
      // transmit buffer is empty.
      return;
    }
    
    if((ReadReg(LSR) & LSR_TX_IDLE) == 0){
    8000085c:	10000937          	lui	s2,0x10000
      // so we cannot give it another byte.
      // it will interrupt when it's ready for a new byte.
      return;
    }
    
    int c = uart_tx_buf[uart_tx_r % UART_TX_BUF_SIZE];
    80000860:	00010a17          	auipc	s4,0x10
    80000864:	2b8a0a13          	addi	s4,s4,696 # 80010b18 <uart_tx_lock>
    uart_tx_r += 1;
    80000868:	00008497          	auipc	s1,0x8
    8000086c:	05048493          	addi	s1,s1,80 # 800088b8 <uart_tx_r>
    if(uart_tx_w == uart_tx_r){
    80000870:	00008997          	auipc	s3,0x8
    80000874:	05098993          	addi	s3,s3,80 # 800088c0 <uart_tx_w>
    if((ReadReg(LSR) & LSR_TX_IDLE) == 0){
    80000878:	00594703          	lbu	a4,5(s2) # 10000005 <_entry-0x6ffffffb>
    8000087c:	02077713          	andi	a4,a4,32
    80000880:	c705                	beqz	a4,800008a8 <uartstart+0x72>
    int c = uart_tx_buf[uart_tx_r % UART_TX_BUF_SIZE];
    80000882:	01f7f713          	andi	a4,a5,31
    80000886:	9752                	add	a4,a4,s4
    80000888:	01874a83          	lbu	s5,24(a4)
    uart_tx_r += 1;
    8000088c:	0785                	addi	a5,a5,1
    8000088e:	e09c                	sd	a5,0(s1)
    
    // maybe uartputc() is waiting for space in the buffer.
    wakeup(&uart_tx_r);
    80000890:	8526                	mv	a0,s1
    80000892:	00002097          	auipc	ra,0x2
    80000896:	89e080e7          	jalr	-1890(ra) # 80002130 <wakeup>
    
    WriteReg(THR, c);
    8000089a:	01590023          	sb	s5,0(s2)
    if(uart_tx_w == uart_tx_r){
    8000089e:	609c                	ld	a5,0(s1)
    800008a0:	0009b703          	ld	a4,0(s3)
    800008a4:	fcf71ae3          	bne	a4,a5,80000878 <uartstart+0x42>
  }
}
    800008a8:	70e2                	ld	ra,56(sp)
    800008aa:	7442                	ld	s0,48(sp)
    800008ac:	74a2                	ld	s1,40(sp)
    800008ae:	7902                	ld	s2,32(sp)
    800008b0:	69e2                	ld	s3,24(sp)
    800008b2:	6a42                	ld	s4,16(sp)
    800008b4:	6aa2                	ld	s5,8(sp)
    800008b6:	6121                	addi	sp,sp,64
    800008b8:	8082                	ret
    800008ba:	8082                	ret

00000000800008bc <uartputc>:
{
    800008bc:	7179                	addi	sp,sp,-48
    800008be:	f406                	sd	ra,40(sp)
    800008c0:	f022                	sd	s0,32(sp)
    800008c2:	ec26                	sd	s1,24(sp)
    800008c4:	e84a                	sd	s2,16(sp)
    800008c6:	e44e                	sd	s3,8(sp)
    800008c8:	e052                	sd	s4,0(sp)
    800008ca:	1800                	addi	s0,sp,48
    800008cc:	8a2a                	mv	s4,a0
  acquire(&uart_tx_lock);
    800008ce:	00010517          	auipc	a0,0x10
    800008d2:	24a50513          	addi	a0,a0,586 # 80010b18 <uart_tx_lock>
    800008d6:	00000097          	auipc	ra,0x0
    800008da:	300080e7          	jalr	768(ra) # 80000bd6 <acquire>
  if(panicked){
    800008de:	00008797          	auipc	a5,0x8
    800008e2:	fd27a783          	lw	a5,-46(a5) # 800088b0 <panicked>
    800008e6:	e7c9                	bnez	a5,80000970 <uartputc+0xb4>
  while(uart_tx_w == uart_tx_r + UART_TX_BUF_SIZE){
    800008e8:	00008717          	auipc	a4,0x8
    800008ec:	fd873703          	ld	a4,-40(a4) # 800088c0 <uart_tx_w>
    800008f0:	00008797          	auipc	a5,0x8
    800008f4:	fc87b783          	ld	a5,-56(a5) # 800088b8 <uart_tx_r>
    800008f8:	02078793          	addi	a5,a5,32
    sleep(&uart_tx_r, &uart_tx_lock);
    800008fc:	00010997          	auipc	s3,0x10
    80000900:	21c98993          	addi	s3,s3,540 # 80010b18 <uart_tx_lock>
    80000904:	00008497          	auipc	s1,0x8
    80000908:	fb448493          	addi	s1,s1,-76 # 800088b8 <uart_tx_r>
  while(uart_tx_w == uart_tx_r + UART_TX_BUF_SIZE){
    8000090c:	00008917          	auipc	s2,0x8
    80000910:	fb490913          	addi	s2,s2,-76 # 800088c0 <uart_tx_w>
    80000914:	00e79f63          	bne	a5,a4,80000932 <uartputc+0x76>
    sleep(&uart_tx_r, &uart_tx_lock);
    80000918:	85ce                	mv	a1,s3
    8000091a:	8526                	mv	a0,s1
    8000091c:	00001097          	auipc	ra,0x1
    80000920:	7b0080e7          	jalr	1968(ra) # 800020cc <sleep>
  while(uart_tx_w == uart_tx_r + UART_TX_BUF_SIZE){
    80000924:	00093703          	ld	a4,0(s2)
    80000928:	609c                	ld	a5,0(s1)
    8000092a:	02078793          	addi	a5,a5,32
    8000092e:	fee785e3          	beq	a5,a4,80000918 <uartputc+0x5c>
  uart_tx_buf[uart_tx_w % UART_TX_BUF_SIZE] = c;
    80000932:	00010497          	auipc	s1,0x10
    80000936:	1e648493          	addi	s1,s1,486 # 80010b18 <uart_tx_lock>
    8000093a:	01f77793          	andi	a5,a4,31
    8000093e:	97a6                	add	a5,a5,s1
    80000940:	01478c23          	sb	s4,24(a5)
  uart_tx_w += 1;
    80000944:	0705                	addi	a4,a4,1
    80000946:	00008797          	auipc	a5,0x8
    8000094a:	f6e7bd23          	sd	a4,-134(a5) # 800088c0 <uart_tx_w>
  uartstart();
    8000094e:	00000097          	auipc	ra,0x0
    80000952:	ee8080e7          	jalr	-280(ra) # 80000836 <uartstart>
  release(&uart_tx_lock);
    80000956:	8526                	mv	a0,s1
    80000958:	00000097          	auipc	ra,0x0
    8000095c:	332080e7          	jalr	818(ra) # 80000c8a <release>
}
    80000960:	70a2                	ld	ra,40(sp)
    80000962:	7402                	ld	s0,32(sp)
    80000964:	64e2                	ld	s1,24(sp)
    80000966:	6942                	ld	s2,16(sp)
    80000968:	69a2                	ld	s3,8(sp)
    8000096a:	6a02                	ld	s4,0(sp)
    8000096c:	6145                	addi	sp,sp,48
    8000096e:	8082                	ret
    for(;;)
    80000970:	a001                	j	80000970 <uartputc+0xb4>

0000000080000972 <uartgetc>:

// read one input character from the UART.
// return -1 if none is waiting.
int
uartgetc(void)
{
    80000972:	1141                	addi	sp,sp,-16
    80000974:	e422                	sd	s0,8(sp)
    80000976:	0800                	addi	s0,sp,16
  if(ReadReg(LSR) & 0x01){
    80000978:	100007b7          	lui	a5,0x10000
    8000097c:	0057c783          	lbu	a5,5(a5) # 10000005 <_entry-0x6ffffffb>
    80000980:	8b85                	andi	a5,a5,1
    80000982:	cb91                	beqz	a5,80000996 <uartgetc+0x24>
    // input data is ready.
    return ReadReg(RHR);
    80000984:	100007b7          	lui	a5,0x10000
    80000988:	0007c503          	lbu	a0,0(a5) # 10000000 <_entry-0x70000000>
    8000098c:	0ff57513          	andi	a0,a0,255
  } else {
    return -1;
  }
}
    80000990:	6422                	ld	s0,8(sp)
    80000992:	0141                	addi	sp,sp,16
    80000994:	8082                	ret
    return -1;
    80000996:	557d                	li	a0,-1
    80000998:	bfe5                	j	80000990 <uartgetc+0x1e>

000000008000099a <uartintr>:
// handle a uart interrupt, raised because input has
// arrived, or the uart is ready for more output, or
// both. called from devintr().
void
uartintr(void)
{
    8000099a:	1101                	addi	sp,sp,-32
    8000099c:	ec06                	sd	ra,24(sp)
    8000099e:	e822                	sd	s0,16(sp)
    800009a0:	e426                	sd	s1,8(sp)
    800009a2:	1000                	addi	s0,sp,32
  // read and process incoming characters.
  while(1){
    int c = uartgetc();
    if(c == -1)
    800009a4:	54fd                	li	s1,-1
    800009a6:	a029                	j	800009b0 <uartintr+0x16>
      break;
    consoleintr(c);
    800009a8:	00000097          	auipc	ra,0x0
    800009ac:	916080e7          	jalr	-1770(ra) # 800002be <consoleintr>
    int c = uartgetc();
    800009b0:	00000097          	auipc	ra,0x0
    800009b4:	fc2080e7          	jalr	-62(ra) # 80000972 <uartgetc>
    if(c == -1)
    800009b8:	fe9518e3          	bne	a0,s1,800009a8 <uartintr+0xe>
  }

  // send buffered characters.
  acquire(&uart_tx_lock);
    800009bc:	00010497          	auipc	s1,0x10
    800009c0:	15c48493          	addi	s1,s1,348 # 80010b18 <uart_tx_lock>
    800009c4:	8526                	mv	a0,s1
    800009c6:	00000097          	auipc	ra,0x0
    800009ca:	210080e7          	jalr	528(ra) # 80000bd6 <acquire>
  uartstart();
    800009ce:	00000097          	auipc	ra,0x0
    800009d2:	e68080e7          	jalr	-408(ra) # 80000836 <uartstart>
  release(&uart_tx_lock);
    800009d6:	8526                	mv	a0,s1
    800009d8:	00000097          	auipc	ra,0x0
    800009dc:	2b2080e7          	jalr	690(ra) # 80000c8a <release>
}
    800009e0:	60e2                	ld	ra,24(sp)
    800009e2:	6442                	ld	s0,16(sp)
    800009e4:	64a2                	ld	s1,8(sp)
    800009e6:	6105                	addi	sp,sp,32
    800009e8:	8082                	ret

00000000800009ea <kfree>:
// which normally should have been returned by a
// call to kalloc().  (The exception is when
// initializing the allocator; see kinit above.)
void
kfree(void *pa)
{
    800009ea:	1101                	addi	sp,sp,-32
    800009ec:	ec06                	sd	ra,24(sp)
    800009ee:	e822                	sd	s0,16(sp)
    800009f0:	e426                	sd	s1,8(sp)
    800009f2:	e04a                	sd	s2,0(sp)
    800009f4:	1000                	addi	s0,sp,32
  struct run *r;

  if(((uint64)pa % PGSIZE) != 0 || (char*)pa < end || (uint64)pa >= PHYSTOP)
    800009f6:	03451793          	slli	a5,a0,0x34
    800009fa:	ebb9                	bnez	a5,80000a50 <kfree+0x66>
    800009fc:	84aa                	mv	s1,a0
    800009fe:	00026797          	auipc	a5,0x26
    80000a02:	40278793          	addi	a5,a5,1026 # 80026e00 <end>
    80000a06:	04f56563          	bltu	a0,a5,80000a50 <kfree+0x66>
    80000a0a:	47c5                	li	a5,17
    80000a0c:	07ee                	slli	a5,a5,0x1b
    80000a0e:	04f57163          	bgeu	a0,a5,80000a50 <kfree+0x66>
    panic("kfree");

  // Fill with junk to catch dangling refs.
  memset(pa, 1, PGSIZE);
    80000a12:	6605                	lui	a2,0x1
    80000a14:	4585                	li	a1,1
    80000a16:	00000097          	auipc	ra,0x0
    80000a1a:	2bc080e7          	jalr	700(ra) # 80000cd2 <memset>

  r = (struct run*)pa;

  acquire(&kmem.lock);
    80000a1e:	00010917          	auipc	s2,0x10
    80000a22:	13290913          	addi	s2,s2,306 # 80010b50 <kmem>
    80000a26:	854a                	mv	a0,s2
    80000a28:	00000097          	auipc	ra,0x0
    80000a2c:	1ae080e7          	jalr	430(ra) # 80000bd6 <acquire>
  r->next = kmem.freelist;
    80000a30:	01893783          	ld	a5,24(s2)
    80000a34:	e09c                	sd	a5,0(s1)
  kmem.freelist = r;
    80000a36:	00993c23          	sd	s1,24(s2)
  release(&kmem.lock);
    80000a3a:	854a                	mv	a0,s2
    80000a3c:	00000097          	auipc	ra,0x0
    80000a40:	24e080e7          	jalr	590(ra) # 80000c8a <release>
}
    80000a44:	60e2                	ld	ra,24(sp)
    80000a46:	6442                	ld	s0,16(sp)
    80000a48:	64a2                	ld	s1,8(sp)
    80000a4a:	6902                	ld	s2,0(sp)
    80000a4c:	6105                	addi	sp,sp,32
    80000a4e:	8082                	ret
    panic("kfree");
    80000a50:	00007517          	auipc	a0,0x7
    80000a54:	61050513          	addi	a0,a0,1552 # 80008060 <digits+0x20>
    80000a58:	00000097          	auipc	ra,0x0
    80000a5c:	ae6080e7          	jalr	-1306(ra) # 8000053e <panic>

0000000080000a60 <freerange>:
{
    80000a60:	7179                	addi	sp,sp,-48
    80000a62:	f406                	sd	ra,40(sp)
    80000a64:	f022                	sd	s0,32(sp)
    80000a66:	ec26                	sd	s1,24(sp)
    80000a68:	e84a                	sd	s2,16(sp)
    80000a6a:	e44e                	sd	s3,8(sp)
    80000a6c:	e052                	sd	s4,0(sp)
    80000a6e:	1800                	addi	s0,sp,48
  p = (char*)PGROUNDUP((uint64)pa_start);
    80000a70:	6785                	lui	a5,0x1
    80000a72:	fff78493          	addi	s1,a5,-1 # fff <_entry-0x7ffff001>
    80000a76:	94aa                	add	s1,s1,a0
    80000a78:	757d                	lui	a0,0xfffff
    80000a7a:	8ce9                	and	s1,s1,a0
  for(; p + PGSIZE <= (char*)pa_end; p += PGSIZE)
    80000a7c:	94be                	add	s1,s1,a5
    80000a7e:	0095ee63          	bltu	a1,s1,80000a9a <freerange+0x3a>
    80000a82:	892e                	mv	s2,a1
    kfree(p);
    80000a84:	7a7d                	lui	s4,0xfffff
  for(; p + PGSIZE <= (char*)pa_end; p += PGSIZE)
    80000a86:	6985                	lui	s3,0x1
    kfree(p);
    80000a88:	01448533          	add	a0,s1,s4
    80000a8c:	00000097          	auipc	ra,0x0
    80000a90:	f5e080e7          	jalr	-162(ra) # 800009ea <kfree>
  for(; p + PGSIZE <= (char*)pa_end; p += PGSIZE)
    80000a94:	94ce                	add	s1,s1,s3
    80000a96:	fe9979e3          	bgeu	s2,s1,80000a88 <freerange+0x28>
}
    80000a9a:	70a2                	ld	ra,40(sp)
    80000a9c:	7402                	ld	s0,32(sp)
    80000a9e:	64e2                	ld	s1,24(sp)
    80000aa0:	6942                	ld	s2,16(sp)
    80000aa2:	69a2                	ld	s3,8(sp)
    80000aa4:	6a02                	ld	s4,0(sp)
    80000aa6:	6145                	addi	sp,sp,48
    80000aa8:	8082                	ret

0000000080000aaa <kinit>:
{
    80000aaa:	1141                	addi	sp,sp,-16
    80000aac:	e406                	sd	ra,8(sp)
    80000aae:	e022                	sd	s0,0(sp)
    80000ab0:	0800                	addi	s0,sp,16
  initlock(&kmem.lock, "kmem");
    80000ab2:	00007597          	auipc	a1,0x7
    80000ab6:	5b658593          	addi	a1,a1,1462 # 80008068 <digits+0x28>
    80000aba:	00010517          	auipc	a0,0x10
    80000abe:	09650513          	addi	a0,a0,150 # 80010b50 <kmem>
    80000ac2:	00000097          	auipc	ra,0x0
    80000ac6:	084080e7          	jalr	132(ra) # 80000b46 <initlock>
  freerange(end, (void*)PHYSTOP);
    80000aca:	45c5                	li	a1,17
    80000acc:	05ee                	slli	a1,a1,0x1b
    80000ace:	00026517          	auipc	a0,0x26
    80000ad2:	33250513          	addi	a0,a0,818 # 80026e00 <end>
    80000ad6:	00000097          	auipc	ra,0x0
    80000ada:	f8a080e7          	jalr	-118(ra) # 80000a60 <freerange>
}
    80000ade:	60a2                	ld	ra,8(sp)
    80000ae0:	6402                	ld	s0,0(sp)
    80000ae2:	0141                	addi	sp,sp,16
    80000ae4:	8082                	ret

0000000080000ae6 <kalloc>:
// Allocate one 4096-byte page of physical memory.
// Returns a pointer that the kernel can use.
// Returns 0 if the memory cannot be allocated.
void *
kalloc(void)
{
    80000ae6:	1101                	addi	sp,sp,-32
    80000ae8:	ec06                	sd	ra,24(sp)
    80000aea:	e822                	sd	s0,16(sp)
    80000aec:	e426                	sd	s1,8(sp)
    80000aee:	1000                	addi	s0,sp,32
  struct run *r;

  acquire(&kmem.lock);
    80000af0:	00010497          	auipc	s1,0x10
    80000af4:	06048493          	addi	s1,s1,96 # 80010b50 <kmem>
    80000af8:	8526                	mv	a0,s1
    80000afa:	00000097          	auipc	ra,0x0
    80000afe:	0dc080e7          	jalr	220(ra) # 80000bd6 <acquire>
  r = kmem.freelist;
    80000b02:	6c84                	ld	s1,24(s1)
  if(r)
    80000b04:	c885                	beqz	s1,80000b34 <kalloc+0x4e>
    kmem.freelist = r->next;
    80000b06:	609c                	ld	a5,0(s1)
    80000b08:	00010517          	auipc	a0,0x10
    80000b0c:	04850513          	addi	a0,a0,72 # 80010b50 <kmem>
    80000b10:	ed1c                	sd	a5,24(a0)
  release(&kmem.lock);
    80000b12:	00000097          	auipc	ra,0x0
    80000b16:	178080e7          	jalr	376(ra) # 80000c8a <release>

  if(r)
    memset((char*)r, 5, PGSIZE); // fill with junk
    80000b1a:	6605                	lui	a2,0x1
    80000b1c:	4595                	li	a1,5
    80000b1e:	8526                	mv	a0,s1
    80000b20:	00000097          	auipc	ra,0x0
    80000b24:	1b2080e7          	jalr	434(ra) # 80000cd2 <memset>
  return (void*)r;
}
    80000b28:	8526                	mv	a0,s1
    80000b2a:	60e2                	ld	ra,24(sp)
    80000b2c:	6442                	ld	s0,16(sp)
    80000b2e:	64a2                	ld	s1,8(sp)
    80000b30:	6105                	addi	sp,sp,32
    80000b32:	8082                	ret
  release(&kmem.lock);
    80000b34:	00010517          	auipc	a0,0x10
    80000b38:	01c50513          	addi	a0,a0,28 # 80010b50 <kmem>
    80000b3c:	00000097          	auipc	ra,0x0
    80000b40:	14e080e7          	jalr	334(ra) # 80000c8a <release>
  if(r)
    80000b44:	b7d5                	j	80000b28 <kalloc+0x42>

0000000080000b46 <initlock>:
#include "proc.h"
#include "defs.h"

void
initlock(struct spinlock *lk, char *name)
{
    80000b46:	1141                	addi	sp,sp,-16
    80000b48:	e422                	sd	s0,8(sp)
    80000b4a:	0800                	addi	s0,sp,16
  lk->name = name;
    80000b4c:	e50c                	sd	a1,8(a0)
  lk->locked = 0;
    80000b4e:	00052023          	sw	zero,0(a0)
  lk->cpu = 0;
    80000b52:	00053823          	sd	zero,16(a0)
}
    80000b56:	6422                	ld	s0,8(sp)
    80000b58:	0141                	addi	sp,sp,16
    80000b5a:	8082                	ret

0000000080000b5c <holding>:
// Interrupts must be off.
int
holding(struct spinlock *lk)
{
  int r;
  r = (lk->locked && lk->cpu == mycpu());
    80000b5c:	411c                	lw	a5,0(a0)
    80000b5e:	e399                	bnez	a5,80000b64 <holding+0x8>
    80000b60:	4501                	li	a0,0
  return r;
}
    80000b62:	8082                	ret
{
    80000b64:	1101                	addi	sp,sp,-32
    80000b66:	ec06                	sd	ra,24(sp)
    80000b68:	e822                	sd	s0,16(sp)
    80000b6a:	e426                	sd	s1,8(sp)
    80000b6c:	1000                	addi	s0,sp,32
  r = (lk->locked && lk->cpu == mycpu());
    80000b6e:	6904                	ld	s1,16(a0)
    80000b70:	00001097          	auipc	ra,0x1
    80000b74:	e20080e7          	jalr	-480(ra) # 80001990 <mycpu>
    80000b78:	40a48533          	sub	a0,s1,a0
    80000b7c:	00153513          	seqz	a0,a0
}
    80000b80:	60e2                	ld	ra,24(sp)
    80000b82:	6442                	ld	s0,16(sp)
    80000b84:	64a2                	ld	s1,8(sp)
    80000b86:	6105                	addi	sp,sp,32
    80000b88:	8082                	ret

0000000080000b8a <push_off>:
// it takes two pop_off()s to undo two push_off()s.  Also, if interrupts
// are initially off, then push_off, pop_off leaves them off.

void
push_off(void)
{
    80000b8a:	1101                	addi	sp,sp,-32
    80000b8c:	ec06                	sd	ra,24(sp)
    80000b8e:	e822                	sd	s0,16(sp)
    80000b90:	e426                	sd	s1,8(sp)
    80000b92:	1000                	addi	s0,sp,32
  asm volatile("csrr %0, sstatus" : "=r" (x) );
    80000b94:	100024f3          	csrr	s1,sstatus
    80000b98:	100027f3          	csrr	a5,sstatus
  w_sstatus(r_sstatus() & ~SSTATUS_SIE);
    80000b9c:	9bf5                	andi	a5,a5,-3
  asm volatile("csrw sstatus, %0" : : "r" (x));
    80000b9e:	10079073          	csrw	sstatus,a5
  int old = intr_get();

  intr_off();
  if(mycpu()->noff == 0)
    80000ba2:	00001097          	auipc	ra,0x1
    80000ba6:	dee080e7          	jalr	-530(ra) # 80001990 <mycpu>
    80000baa:	5d3c                	lw	a5,120(a0)
    80000bac:	cf89                	beqz	a5,80000bc6 <push_off+0x3c>
    mycpu()->intena = old;
  mycpu()->noff += 1;
    80000bae:	00001097          	auipc	ra,0x1
    80000bb2:	de2080e7          	jalr	-542(ra) # 80001990 <mycpu>
    80000bb6:	5d3c                	lw	a5,120(a0)
    80000bb8:	2785                	addiw	a5,a5,1
    80000bba:	dd3c                	sw	a5,120(a0)
}
    80000bbc:	60e2                	ld	ra,24(sp)
    80000bbe:	6442                	ld	s0,16(sp)
    80000bc0:	64a2                	ld	s1,8(sp)
    80000bc2:	6105                	addi	sp,sp,32
    80000bc4:	8082                	ret
    mycpu()->intena = old;
    80000bc6:	00001097          	auipc	ra,0x1
    80000bca:	dca080e7          	jalr	-566(ra) # 80001990 <mycpu>
  return (x & SSTATUS_SIE) != 0;
    80000bce:	8085                	srli	s1,s1,0x1
    80000bd0:	8885                	andi	s1,s1,1
    80000bd2:	dd64                	sw	s1,124(a0)
    80000bd4:	bfe9                	j	80000bae <push_off+0x24>

0000000080000bd6 <acquire>:
{
    80000bd6:	1101                	addi	sp,sp,-32
    80000bd8:	ec06                	sd	ra,24(sp)
    80000bda:	e822                	sd	s0,16(sp)
    80000bdc:	e426                	sd	s1,8(sp)
    80000bde:	1000                	addi	s0,sp,32
    80000be0:	84aa                	mv	s1,a0
  push_off(); // disable interrupts to avoid deadlock.
    80000be2:	00000097          	auipc	ra,0x0
    80000be6:	fa8080e7          	jalr	-88(ra) # 80000b8a <push_off>
  if(holding(lk))
    80000bea:	8526                	mv	a0,s1
    80000bec:	00000097          	auipc	ra,0x0
    80000bf0:	f70080e7          	jalr	-144(ra) # 80000b5c <holding>
  while(__sync_lock_test_and_set(&lk->locked, 1) != 0)
    80000bf4:	4705                	li	a4,1
  if(holding(lk))
    80000bf6:	e115                	bnez	a0,80000c1a <acquire+0x44>
  while(__sync_lock_test_and_set(&lk->locked, 1) != 0)
    80000bf8:	87ba                	mv	a5,a4
    80000bfa:	0cf4a7af          	amoswap.w.aq	a5,a5,(s1)
    80000bfe:	2781                	sext.w	a5,a5
    80000c00:	ffe5                	bnez	a5,80000bf8 <acquire+0x22>
  __sync_synchronize();
    80000c02:	0ff0000f          	fence
  lk->cpu = mycpu();
    80000c06:	00001097          	auipc	ra,0x1
    80000c0a:	d8a080e7          	jalr	-630(ra) # 80001990 <mycpu>
    80000c0e:	e888                	sd	a0,16(s1)
}
    80000c10:	60e2                	ld	ra,24(sp)
    80000c12:	6442                	ld	s0,16(sp)
    80000c14:	64a2                	ld	s1,8(sp)
    80000c16:	6105                	addi	sp,sp,32
    80000c18:	8082                	ret
    panic("acquire");
    80000c1a:	00007517          	auipc	a0,0x7
    80000c1e:	45650513          	addi	a0,a0,1110 # 80008070 <digits+0x30>
    80000c22:	00000097          	auipc	ra,0x0
    80000c26:	91c080e7          	jalr	-1764(ra) # 8000053e <panic>

0000000080000c2a <pop_off>:

void
pop_off(void)
{
    80000c2a:	1141                	addi	sp,sp,-16
    80000c2c:	e406                	sd	ra,8(sp)
    80000c2e:	e022                	sd	s0,0(sp)
    80000c30:	0800                	addi	s0,sp,16
  struct cpu *c = mycpu();
    80000c32:	00001097          	auipc	ra,0x1
    80000c36:	d5e080e7          	jalr	-674(ra) # 80001990 <mycpu>
  asm volatile("csrr %0, sstatus" : "=r" (x) );
    80000c3a:	100027f3          	csrr	a5,sstatus
  return (x & SSTATUS_SIE) != 0;
    80000c3e:	8b89                	andi	a5,a5,2
  if(intr_get())
    80000c40:	e78d                	bnez	a5,80000c6a <pop_off+0x40>
    panic("pop_off - interruptible");
  if(c->noff < 1)
    80000c42:	5d3c                	lw	a5,120(a0)
    80000c44:	02f05b63          	blez	a5,80000c7a <pop_off+0x50>
    panic("pop_off");
  c->noff -= 1;
    80000c48:	37fd                	addiw	a5,a5,-1
    80000c4a:	0007871b          	sext.w	a4,a5
    80000c4e:	dd3c                	sw	a5,120(a0)
  if(c->noff == 0 && c->intena)
    80000c50:	eb09                	bnez	a4,80000c62 <pop_off+0x38>
    80000c52:	5d7c                	lw	a5,124(a0)
    80000c54:	c799                	beqz	a5,80000c62 <pop_off+0x38>
  asm volatile("csrr %0, sstatus" : "=r" (x) );
    80000c56:	100027f3          	csrr	a5,sstatus
  w_sstatus(r_sstatus() | SSTATUS_SIE);
    80000c5a:	0027e793          	ori	a5,a5,2
  asm volatile("csrw sstatus, %0" : : "r" (x));
    80000c5e:	10079073          	csrw	sstatus,a5
    intr_on();
}
    80000c62:	60a2                	ld	ra,8(sp)
    80000c64:	6402                	ld	s0,0(sp)
    80000c66:	0141                	addi	sp,sp,16
    80000c68:	8082                	ret
    panic("pop_off - interruptible");
    80000c6a:	00007517          	auipc	a0,0x7
    80000c6e:	40e50513          	addi	a0,a0,1038 # 80008078 <digits+0x38>
    80000c72:	00000097          	auipc	ra,0x0
    80000c76:	8cc080e7          	jalr	-1844(ra) # 8000053e <panic>
    panic("pop_off");
    80000c7a:	00007517          	auipc	a0,0x7
    80000c7e:	41650513          	addi	a0,a0,1046 # 80008090 <digits+0x50>
    80000c82:	00000097          	auipc	ra,0x0
    80000c86:	8bc080e7          	jalr	-1860(ra) # 8000053e <panic>

0000000080000c8a <release>:
{
    80000c8a:	1101                	addi	sp,sp,-32
    80000c8c:	ec06                	sd	ra,24(sp)
    80000c8e:	e822                	sd	s0,16(sp)
    80000c90:	e426                	sd	s1,8(sp)
    80000c92:	1000                	addi	s0,sp,32
    80000c94:	84aa                	mv	s1,a0
  if(!holding(lk))
    80000c96:	00000097          	auipc	ra,0x0
    80000c9a:	ec6080e7          	jalr	-314(ra) # 80000b5c <holding>
    80000c9e:	c115                	beqz	a0,80000cc2 <release+0x38>
  lk->cpu = 0;
    80000ca0:	0004b823          	sd	zero,16(s1)
  __sync_synchronize();
    80000ca4:	0ff0000f          	fence
  __sync_lock_release(&lk->locked);
    80000ca8:	0f50000f          	fence	iorw,ow
    80000cac:	0804a02f          	amoswap.w	zero,zero,(s1)
  pop_off();
    80000cb0:	00000097          	auipc	ra,0x0
    80000cb4:	f7a080e7          	jalr	-134(ra) # 80000c2a <pop_off>
}
    80000cb8:	60e2                	ld	ra,24(sp)
    80000cba:	6442                	ld	s0,16(sp)
    80000cbc:	64a2                	ld	s1,8(sp)
    80000cbe:	6105                	addi	sp,sp,32
    80000cc0:	8082                	ret
    panic("release");
    80000cc2:	00007517          	auipc	a0,0x7
    80000cc6:	3d650513          	addi	a0,a0,982 # 80008098 <digits+0x58>
    80000cca:	00000097          	auipc	ra,0x0
    80000cce:	874080e7          	jalr	-1932(ra) # 8000053e <panic>

0000000080000cd2 <memset>:
#include "types.h"

void*
memset(void *dst, int c, uint n)
{
    80000cd2:	1141                	addi	sp,sp,-16
    80000cd4:	e422                	sd	s0,8(sp)
    80000cd6:	0800                	addi	s0,sp,16
  char *cdst = (char *) dst;
  int i;
  for(i = 0; i < n; i++){
    80000cd8:	ca19                	beqz	a2,80000cee <memset+0x1c>
    80000cda:	87aa                	mv	a5,a0
    80000cdc:	1602                	slli	a2,a2,0x20
    80000cde:	9201                	srli	a2,a2,0x20
    80000ce0:	00a60733          	add	a4,a2,a0
    cdst[i] = c;
    80000ce4:	00b78023          	sb	a1,0(a5)
  for(i = 0; i < n; i++){
    80000ce8:	0785                	addi	a5,a5,1
    80000cea:	fee79de3          	bne	a5,a4,80000ce4 <memset+0x12>
  }
  return dst;
}
    80000cee:	6422                	ld	s0,8(sp)
    80000cf0:	0141                	addi	sp,sp,16
    80000cf2:	8082                	ret

0000000080000cf4 <memcmp>:

int
memcmp(const void *v1, const void *v2, uint n)
{
    80000cf4:	1141                	addi	sp,sp,-16
    80000cf6:	e422                	sd	s0,8(sp)
    80000cf8:	0800                	addi	s0,sp,16
  const uchar *s1, *s2;

  s1 = v1;
  s2 = v2;
  while(n-- > 0){
    80000cfa:	ca05                	beqz	a2,80000d2a <memcmp+0x36>
    80000cfc:	fff6069b          	addiw	a3,a2,-1
    80000d00:	1682                	slli	a3,a3,0x20
    80000d02:	9281                	srli	a3,a3,0x20
    80000d04:	0685                	addi	a3,a3,1
    80000d06:	96aa                	add	a3,a3,a0
    if(*s1 != *s2)
    80000d08:	00054783          	lbu	a5,0(a0)
    80000d0c:	0005c703          	lbu	a4,0(a1)
    80000d10:	00e79863          	bne	a5,a4,80000d20 <memcmp+0x2c>
      return *s1 - *s2;
    s1++, s2++;
    80000d14:	0505                	addi	a0,a0,1
    80000d16:	0585                	addi	a1,a1,1
  while(n-- > 0){
    80000d18:	fed518e3          	bne	a0,a3,80000d08 <memcmp+0x14>
  }

  return 0;
    80000d1c:	4501                	li	a0,0
    80000d1e:	a019                	j	80000d24 <memcmp+0x30>
      return *s1 - *s2;
    80000d20:	40e7853b          	subw	a0,a5,a4
}
    80000d24:	6422                	ld	s0,8(sp)
    80000d26:	0141                	addi	sp,sp,16
    80000d28:	8082                	ret
  return 0;
    80000d2a:	4501                	li	a0,0
    80000d2c:	bfe5                	j	80000d24 <memcmp+0x30>

0000000080000d2e <memmove>:

void*
memmove(void *dst, const void *src, uint n)
{
    80000d2e:	1141                	addi	sp,sp,-16
    80000d30:	e422                	sd	s0,8(sp)
    80000d32:	0800                	addi	s0,sp,16
  const char *s;
  char *d;

  if(n == 0)
    80000d34:	c205                	beqz	a2,80000d54 <memmove+0x26>
    return dst;
  
  s = src;
  d = dst;
  if(s < d && s + n > d){
    80000d36:	02a5e263          	bltu	a1,a0,80000d5a <memmove+0x2c>
    s += n;
    d += n;
    while(n-- > 0)
      *--d = *--s;
  } else
    while(n-- > 0)
    80000d3a:	1602                	slli	a2,a2,0x20
    80000d3c:	9201                	srli	a2,a2,0x20
    80000d3e:	00c587b3          	add	a5,a1,a2
{
    80000d42:	872a                	mv	a4,a0
      *d++ = *s++;
    80000d44:	0585                	addi	a1,a1,1
    80000d46:	0705                	addi	a4,a4,1
    80000d48:	fff5c683          	lbu	a3,-1(a1)
    80000d4c:	fed70fa3          	sb	a3,-1(a4)
    while(n-- > 0)
    80000d50:	fef59ae3          	bne	a1,a5,80000d44 <memmove+0x16>

  return dst;
}
    80000d54:	6422                	ld	s0,8(sp)
    80000d56:	0141                	addi	sp,sp,16
    80000d58:	8082                	ret
  if(s < d && s + n > d){
    80000d5a:	02061693          	slli	a3,a2,0x20
    80000d5e:	9281                	srli	a3,a3,0x20
    80000d60:	00d58733          	add	a4,a1,a3
    80000d64:	fce57be3          	bgeu	a0,a4,80000d3a <memmove+0xc>
    d += n;
    80000d68:	96aa                	add	a3,a3,a0
    while(n-- > 0)
    80000d6a:	fff6079b          	addiw	a5,a2,-1
    80000d6e:	1782                	slli	a5,a5,0x20
    80000d70:	9381                	srli	a5,a5,0x20
    80000d72:	fff7c793          	not	a5,a5
    80000d76:	97ba                	add	a5,a5,a4
      *--d = *--s;
    80000d78:	177d                	addi	a4,a4,-1
    80000d7a:	16fd                	addi	a3,a3,-1
    80000d7c:	00074603          	lbu	a2,0(a4)
    80000d80:	00c68023          	sb	a2,0(a3)
    while(n-- > 0)
    80000d84:	fee79ae3          	bne	a5,a4,80000d78 <memmove+0x4a>
    80000d88:	b7f1                	j	80000d54 <memmove+0x26>

0000000080000d8a <memcpy>:

// memcpy exists to placate GCC.  Use memmove.
void*
memcpy(void *dst, const void *src, uint n)
{
    80000d8a:	1141                	addi	sp,sp,-16
    80000d8c:	e406                	sd	ra,8(sp)
    80000d8e:	e022                	sd	s0,0(sp)
    80000d90:	0800                	addi	s0,sp,16
  return memmove(dst, src, n);
    80000d92:	00000097          	auipc	ra,0x0
    80000d96:	f9c080e7          	jalr	-100(ra) # 80000d2e <memmove>
}
    80000d9a:	60a2                	ld	ra,8(sp)
    80000d9c:	6402                	ld	s0,0(sp)
    80000d9e:	0141                	addi	sp,sp,16
    80000da0:	8082                	ret

0000000080000da2 <strncmp>:

int
strncmp(const char *p, const char *q, uint n)
{
    80000da2:	1141                	addi	sp,sp,-16
    80000da4:	e422                	sd	s0,8(sp)
    80000da6:	0800                	addi	s0,sp,16
  while(n > 0 && *p && *p == *q)
    80000da8:	ce11                	beqz	a2,80000dc4 <strncmp+0x22>
    80000daa:	00054783          	lbu	a5,0(a0)
    80000dae:	cf89                	beqz	a5,80000dc8 <strncmp+0x26>
    80000db0:	0005c703          	lbu	a4,0(a1)
    80000db4:	00f71a63          	bne	a4,a5,80000dc8 <strncmp+0x26>
    n--, p++, q++;
    80000db8:	367d                	addiw	a2,a2,-1
    80000dba:	0505                	addi	a0,a0,1
    80000dbc:	0585                	addi	a1,a1,1
  while(n > 0 && *p && *p == *q)
    80000dbe:	f675                	bnez	a2,80000daa <strncmp+0x8>
  if(n == 0)
    return 0;
    80000dc0:	4501                	li	a0,0
    80000dc2:	a809                	j	80000dd4 <strncmp+0x32>
    80000dc4:	4501                	li	a0,0
    80000dc6:	a039                	j	80000dd4 <strncmp+0x32>
  if(n == 0)
    80000dc8:	ca09                	beqz	a2,80000dda <strncmp+0x38>
  return (uchar)*p - (uchar)*q;
    80000dca:	00054503          	lbu	a0,0(a0)
    80000dce:	0005c783          	lbu	a5,0(a1)
    80000dd2:	9d1d                	subw	a0,a0,a5
}
    80000dd4:	6422                	ld	s0,8(sp)
    80000dd6:	0141                	addi	sp,sp,16
    80000dd8:	8082                	ret
    return 0;
    80000dda:	4501                	li	a0,0
    80000ddc:	bfe5                	j	80000dd4 <strncmp+0x32>

0000000080000dde <strncpy>:

char*
strncpy(char *s, const char *t, int n)
{
    80000dde:	1141                	addi	sp,sp,-16
    80000de0:	e422                	sd	s0,8(sp)
    80000de2:	0800                	addi	s0,sp,16
  char *os;

  os = s;
  while(n-- > 0 && (*s++ = *t++) != 0)
    80000de4:	872a                	mv	a4,a0
    80000de6:	8832                	mv	a6,a2
    80000de8:	367d                	addiw	a2,a2,-1
    80000dea:	01005963          	blez	a6,80000dfc <strncpy+0x1e>
    80000dee:	0705                	addi	a4,a4,1
    80000df0:	0005c783          	lbu	a5,0(a1)
    80000df4:	fef70fa3          	sb	a5,-1(a4)
    80000df8:	0585                	addi	a1,a1,1
    80000dfa:	f7f5                	bnez	a5,80000de6 <strncpy+0x8>
    ;
  while(n-- > 0)
    80000dfc:	86ba                	mv	a3,a4
    80000dfe:	00c05c63          	blez	a2,80000e16 <strncpy+0x38>
    *s++ = 0;
    80000e02:	0685                	addi	a3,a3,1
    80000e04:	fe068fa3          	sb	zero,-1(a3)
  while(n-- > 0)
    80000e08:	fff6c793          	not	a5,a3
    80000e0c:	9fb9                	addw	a5,a5,a4
    80000e0e:	010787bb          	addw	a5,a5,a6
    80000e12:	fef048e3          	bgtz	a5,80000e02 <strncpy+0x24>
  return os;
}
    80000e16:	6422                	ld	s0,8(sp)
    80000e18:	0141                	addi	sp,sp,16
    80000e1a:	8082                	ret

0000000080000e1c <safestrcpy>:

// Like strncpy but guaranteed to NUL-terminate.
char*
safestrcpy(char *s, const char *t, int n)
{
    80000e1c:	1141                	addi	sp,sp,-16
    80000e1e:	e422                	sd	s0,8(sp)
    80000e20:	0800                	addi	s0,sp,16
  char *os;

  os = s;
  if(n <= 0)
    80000e22:	02c05363          	blez	a2,80000e48 <safestrcpy+0x2c>
    80000e26:	fff6069b          	addiw	a3,a2,-1
    80000e2a:	1682                	slli	a3,a3,0x20
    80000e2c:	9281                	srli	a3,a3,0x20
    80000e2e:	96ae                	add	a3,a3,a1
    80000e30:	87aa                	mv	a5,a0
    return os;
  while(--n > 0 && (*s++ = *t++) != 0)
    80000e32:	00d58963          	beq	a1,a3,80000e44 <safestrcpy+0x28>
    80000e36:	0585                	addi	a1,a1,1
    80000e38:	0785                	addi	a5,a5,1
    80000e3a:	fff5c703          	lbu	a4,-1(a1)
    80000e3e:	fee78fa3          	sb	a4,-1(a5)
    80000e42:	fb65                	bnez	a4,80000e32 <safestrcpy+0x16>
    ;
  *s = 0;
    80000e44:	00078023          	sb	zero,0(a5)
  return os;
}
    80000e48:	6422                	ld	s0,8(sp)
    80000e4a:	0141                	addi	sp,sp,16
    80000e4c:	8082                	ret

0000000080000e4e <strlen>:

int
strlen(const char *s)
{
    80000e4e:	1141                	addi	sp,sp,-16
    80000e50:	e422                	sd	s0,8(sp)
    80000e52:	0800                	addi	s0,sp,16
  int n;

  for(n = 0; s[n]; n++)
    80000e54:	00054783          	lbu	a5,0(a0)
    80000e58:	cf91                	beqz	a5,80000e74 <strlen+0x26>
    80000e5a:	0505                	addi	a0,a0,1
    80000e5c:	87aa                	mv	a5,a0
    80000e5e:	4685                	li	a3,1
    80000e60:	9e89                	subw	a3,a3,a0
    80000e62:	00f6853b          	addw	a0,a3,a5
    80000e66:	0785                	addi	a5,a5,1
    80000e68:	fff7c703          	lbu	a4,-1(a5)
    80000e6c:	fb7d                	bnez	a4,80000e62 <strlen+0x14>
    ;
  return n;
}
    80000e6e:	6422                	ld	s0,8(sp)
    80000e70:	0141                	addi	sp,sp,16
    80000e72:	8082                	ret
  for(n = 0; s[n]; n++)
    80000e74:	4501                	li	a0,0
    80000e76:	bfe5                	j	80000e6e <strlen+0x20>

0000000080000e78 <main>:


// start() jumps here in supervisor mode on all CPUs.
void
main()
{
    80000e78:	1141                	addi	sp,sp,-16
    80000e7a:	e406                	sd	ra,8(sp)
    80000e7c:	e022                	sd	s0,0(sp)
    80000e7e:	0800                	addi	s0,sp,16
  if(cpuid() == 0){
    80000e80:	00001097          	auipc	ra,0x1
    80000e84:	b00080e7          	jalr	-1280(ra) # 80001980 <cpuid>
    virtio_disk_init(); // emulated hard disk
    userinit();      // first user process
    __sync_synchronize();
    started = 1;
  } else {
    while(started == 0)
    80000e88:	00008717          	auipc	a4,0x8
    80000e8c:	a4070713          	addi	a4,a4,-1472 # 800088c8 <started>
  if(cpuid() == 0){
    80000e90:	c139                	beqz	a0,80000ed6 <main+0x5e>
    while(started == 0)
    80000e92:	431c                	lw	a5,0(a4)
    80000e94:	2781                	sext.w	a5,a5
    80000e96:	dff5                	beqz	a5,80000e92 <main+0x1a>
      ;
    __sync_synchronize();
    80000e98:	0ff0000f          	fence
    printf("hart %d starting\n", cpuid());
    80000e9c:	00001097          	auipc	ra,0x1
    80000ea0:	ae4080e7          	jalr	-1308(ra) # 80001980 <cpuid>
    80000ea4:	85aa                	mv	a1,a0
    80000ea6:	00007517          	auipc	a0,0x7
    80000eaa:	21250513          	addi	a0,a0,530 # 800080b8 <digits+0x78>
    80000eae:	fffff097          	auipc	ra,0xfffff
    80000eb2:	6da080e7          	jalr	1754(ra) # 80000588 <printf>
    kvminithart();    // turn on paging
    80000eb6:	00000097          	auipc	ra,0x0
    80000eba:	0d8080e7          	jalr	216(ra) # 80000f8e <kvminithart>
    trapinithart();   // install kernel trap vector
    80000ebe:	00002097          	auipc	ra,0x2
    80000ec2:	9b8080e7          	jalr	-1608(ra) # 80002876 <trapinithart>
    plicinithart();   // ask PLIC for device interrupts
    80000ec6:	00005097          	auipc	ra,0x5
    80000eca:	16a080e7          	jalr	362(ra) # 80006030 <plicinithart>
  }

   scheduler();   
    80000ece:	00001097          	auipc	ra,0x1
    80000ed2:	04c080e7          	jalr	76(ra) # 80001f1a <scheduler>
    consoleinit();
    80000ed6:	fffff097          	auipc	ra,0xfffff
    80000eda:	57a080e7          	jalr	1402(ra) # 80000450 <consoleinit>
    printfinit();
    80000ede:	00000097          	auipc	ra,0x0
    80000ee2:	88a080e7          	jalr	-1910(ra) # 80000768 <printfinit>
    printf("\n");
    80000ee6:	00007517          	auipc	a0,0x7
    80000eea:	1e250513          	addi	a0,a0,482 # 800080c8 <digits+0x88>
    80000eee:	fffff097          	auipc	ra,0xfffff
    80000ef2:	69a080e7          	jalr	1690(ra) # 80000588 <printf>
    printf("xv6 kernel is booting\n");
    80000ef6:	00007517          	auipc	a0,0x7
    80000efa:	1aa50513          	addi	a0,a0,426 # 800080a0 <digits+0x60>
    80000efe:	fffff097          	auipc	ra,0xfffff
    80000f02:	68a080e7          	jalr	1674(ra) # 80000588 <printf>
    printf("\n");
    80000f06:	00007517          	auipc	a0,0x7
    80000f0a:	1c250513          	addi	a0,a0,450 # 800080c8 <digits+0x88>
    80000f0e:	fffff097          	auipc	ra,0xfffff
    80000f12:	67a080e7          	jalr	1658(ra) # 80000588 <printf>
    kinit();         // physical page allocator
    80000f16:	00000097          	auipc	ra,0x0
    80000f1a:	b94080e7          	jalr	-1132(ra) # 80000aaa <kinit>
    kvminit();       // create kernel page table
    80000f1e:	00000097          	auipc	ra,0x0
    80000f22:	326080e7          	jalr	806(ra) # 80001244 <kvminit>
    kvminithart();   // turn on paging
    80000f26:	00000097          	auipc	ra,0x0
    80000f2a:	068080e7          	jalr	104(ra) # 80000f8e <kvminithart>
    procinit();      // process table
    80000f2e:	00001097          	auipc	ra,0x1
    80000f32:	99e080e7          	jalr	-1634(ra) # 800018cc <procinit>
    trapinit();      // trap vectors
    80000f36:	00002097          	auipc	ra,0x2
    80000f3a:	918080e7          	jalr	-1768(ra) # 8000284e <trapinit>
    trapinithart();  // install kernel trap vector
    80000f3e:	00002097          	auipc	ra,0x2
    80000f42:	938080e7          	jalr	-1736(ra) # 80002876 <trapinithart>
    plicinit();      // set up interrupt controller
    80000f46:	00005097          	auipc	ra,0x5
    80000f4a:	0d4080e7          	jalr	212(ra) # 8000601a <plicinit>
    plicinithart();  // ask PLIC for device interrupts
    80000f4e:	00005097          	auipc	ra,0x5
    80000f52:	0e2080e7          	jalr	226(ra) # 80006030 <plicinithart>
    binit();         // buffer cache
    80000f56:	00002097          	auipc	ra,0x2
    80000f5a:	198080e7          	jalr	408(ra) # 800030ee <binit>
    iinit();         // inode table
    80000f5e:	00003097          	auipc	ra,0x3
    80000f62:	83c080e7          	jalr	-1988(ra) # 8000379a <iinit>
    fileinit();      // file table
    80000f66:	00003097          	auipc	ra,0x3
    80000f6a:	7da080e7          	jalr	2010(ra) # 80004740 <fileinit>
    virtio_disk_init(); // emulated hard disk
    80000f6e:	00005097          	auipc	ra,0x5
    80000f72:	1ca080e7          	jalr	458(ra) # 80006138 <virtio_disk_init>
    userinit();      // first user process
    80000f76:	00001097          	auipc	ra,0x1
    80000f7a:	d40080e7          	jalr	-704(ra) # 80001cb6 <userinit>
    __sync_synchronize();
    80000f7e:	0ff0000f          	fence
    started = 1;
    80000f82:	4785                	li	a5,1
    80000f84:	00008717          	auipc	a4,0x8
    80000f88:	94f72223          	sw	a5,-1724(a4) # 800088c8 <started>
    80000f8c:	b789                	j	80000ece <main+0x56>

0000000080000f8e <kvminithart>:

// Switch h/w page table register to the kernel's page table,
// and enable paging.
void
kvminithart()
{
    80000f8e:	1141                	addi	sp,sp,-16
    80000f90:	e422                	sd	s0,8(sp)
    80000f92:	0800                	addi	s0,sp,16
// flush the TLB.
static inline void
sfence_vma()
{
  // the zero, zero means flush all TLB entries.
  asm volatile("sfence.vma zero, zero");
    80000f94:	12000073          	sfence.vma
  // wait for any previous writes to the page table memory to finish.
  sfence_vma();

  w_satp(MAKE_SATP(kernel_pagetable));
    80000f98:	00008797          	auipc	a5,0x8
    80000f9c:	9387b783          	ld	a5,-1736(a5) # 800088d0 <kernel_pagetable>
    80000fa0:	83b1                	srli	a5,a5,0xc
    80000fa2:	577d                	li	a4,-1
    80000fa4:	177e                	slli	a4,a4,0x3f
    80000fa6:	8fd9                	or	a5,a5,a4
  asm volatile("csrw satp, %0" : : "r" (x));
    80000fa8:	18079073          	csrw	satp,a5
  asm volatile("sfence.vma zero, zero");
    80000fac:	12000073          	sfence.vma

  // flush stale entries from the TLB.
  sfence_vma();
}
    80000fb0:	6422                	ld	s0,8(sp)
    80000fb2:	0141                	addi	sp,sp,16
    80000fb4:	8082                	ret

0000000080000fb6 <walk>:
//   21..29 -- 9 bits of level-1 index.
//   12..20 -- 9 bits of level-0 index.
//    0..11 -- 12 bits of byte offset within the page.
pte_t *
walk(pagetable_t pagetable, uint64 va, int alloc)
{
    80000fb6:	7139                	addi	sp,sp,-64
    80000fb8:	fc06                	sd	ra,56(sp)
    80000fba:	f822                	sd	s0,48(sp)
    80000fbc:	f426                	sd	s1,40(sp)
    80000fbe:	f04a                	sd	s2,32(sp)
    80000fc0:	ec4e                	sd	s3,24(sp)
    80000fc2:	e852                	sd	s4,16(sp)
    80000fc4:	e456                	sd	s5,8(sp)
    80000fc6:	e05a                	sd	s6,0(sp)
    80000fc8:	0080                	addi	s0,sp,64
    80000fca:	84aa                	mv	s1,a0
    80000fcc:	89ae                	mv	s3,a1
    80000fce:	8ab2                	mv	s5,a2
  if(va >= MAXVA)
    80000fd0:	57fd                	li	a5,-1
    80000fd2:	83e9                	srli	a5,a5,0x1a
    80000fd4:	4a79                	li	s4,30
    panic("walk");

  for(int level = 2; level > 0; level--) {
    80000fd6:	4b31                	li	s6,12
  if(va >= MAXVA)
    80000fd8:	04b7f263          	bgeu	a5,a1,8000101c <walk+0x66>
    panic("walk");
    80000fdc:	00007517          	auipc	a0,0x7
    80000fe0:	0f450513          	addi	a0,a0,244 # 800080d0 <digits+0x90>
    80000fe4:	fffff097          	auipc	ra,0xfffff
    80000fe8:	55a080e7          	jalr	1370(ra) # 8000053e <panic>
    pte_t *pte = &pagetable[PX(level, va)];
    if(*pte & PTE_V) {
      pagetable = (pagetable_t)PTE2PA(*pte);
    } else {
      if(!alloc || (pagetable = (pde_t*)kalloc()) == 0)
    80000fec:	060a8663          	beqz	s5,80001058 <walk+0xa2>
    80000ff0:	00000097          	auipc	ra,0x0
    80000ff4:	af6080e7          	jalr	-1290(ra) # 80000ae6 <kalloc>
    80000ff8:	84aa                	mv	s1,a0
    80000ffa:	c529                	beqz	a0,80001044 <walk+0x8e>
        return 0;
      memset(pagetable, 0, PGSIZE);
    80000ffc:	6605                	lui	a2,0x1
    80000ffe:	4581                	li	a1,0
    80001000:	00000097          	auipc	ra,0x0
    80001004:	cd2080e7          	jalr	-814(ra) # 80000cd2 <memset>
      *pte = PA2PTE(pagetable) | PTE_V;
    80001008:	00c4d793          	srli	a5,s1,0xc
    8000100c:	07aa                	slli	a5,a5,0xa
    8000100e:	0017e793          	ori	a5,a5,1
    80001012:	00f93023          	sd	a5,0(s2)
  for(int level = 2; level > 0; level--) {
    80001016:	3a5d                	addiw	s4,s4,-9
    80001018:	036a0063          	beq	s4,s6,80001038 <walk+0x82>
    pte_t *pte = &pagetable[PX(level, va)];
    8000101c:	0149d933          	srl	s2,s3,s4
    80001020:	1ff97913          	andi	s2,s2,511
    80001024:	090e                	slli	s2,s2,0x3
    80001026:	9926                	add	s2,s2,s1
    if(*pte & PTE_V) {
    80001028:	00093483          	ld	s1,0(s2)
    8000102c:	0014f793          	andi	a5,s1,1
    80001030:	dfd5                	beqz	a5,80000fec <walk+0x36>
      pagetable = (pagetable_t)PTE2PA(*pte);
    80001032:	80a9                	srli	s1,s1,0xa
    80001034:	04b2                	slli	s1,s1,0xc
    80001036:	b7c5                	j	80001016 <walk+0x60>
    }
  }
  return &pagetable[PX(0, va)];
    80001038:	00c9d513          	srli	a0,s3,0xc
    8000103c:	1ff57513          	andi	a0,a0,511
    80001040:	050e                	slli	a0,a0,0x3
    80001042:	9526                	add	a0,a0,s1
}
    80001044:	70e2                	ld	ra,56(sp)
    80001046:	7442                	ld	s0,48(sp)
    80001048:	74a2                	ld	s1,40(sp)
    8000104a:	7902                	ld	s2,32(sp)
    8000104c:	69e2                	ld	s3,24(sp)
    8000104e:	6a42                	ld	s4,16(sp)
    80001050:	6aa2                	ld	s5,8(sp)
    80001052:	6b02                	ld	s6,0(sp)
    80001054:	6121                	addi	sp,sp,64
    80001056:	8082                	ret
        return 0;
    80001058:	4501                	li	a0,0
    8000105a:	b7ed                	j	80001044 <walk+0x8e>

000000008000105c <walkaddr>:
walkaddr(pagetable_t pagetable, uint64 va)
{
  pte_t *pte;
  uint64 pa;

  if(va >= MAXVA)
    8000105c:	57fd                	li	a5,-1
    8000105e:	83e9                	srli	a5,a5,0x1a
    80001060:	00b7f463          	bgeu	a5,a1,80001068 <walkaddr+0xc>
    return 0;
    80001064:	4501                	li	a0,0
    return 0;
  if((*pte & PTE_U) == 0)
    return 0;
  pa = PTE2PA(*pte);
  return pa;
}
    80001066:	8082                	ret
{
    80001068:	1141                	addi	sp,sp,-16
    8000106a:	e406                	sd	ra,8(sp)
    8000106c:	e022                	sd	s0,0(sp)
    8000106e:	0800                	addi	s0,sp,16
  pte = walk(pagetable, va, 0);
    80001070:	4601                	li	a2,0
    80001072:	00000097          	auipc	ra,0x0
    80001076:	f44080e7          	jalr	-188(ra) # 80000fb6 <walk>
  if(pte == 0)
    8000107a:	c105                	beqz	a0,8000109a <walkaddr+0x3e>
  if((*pte & PTE_V) == 0)
    8000107c:	611c                	ld	a5,0(a0)
  if((*pte & PTE_U) == 0)
    8000107e:	0117f693          	andi	a3,a5,17
    80001082:	4745                	li	a4,17
    return 0;
    80001084:	4501                	li	a0,0
  if((*pte & PTE_U) == 0)
    80001086:	00e68663          	beq	a3,a4,80001092 <walkaddr+0x36>
}
    8000108a:	60a2                	ld	ra,8(sp)
    8000108c:	6402                	ld	s0,0(sp)
    8000108e:	0141                	addi	sp,sp,16
    80001090:	8082                	ret
  pa = PTE2PA(*pte);
    80001092:	00a7d513          	srli	a0,a5,0xa
    80001096:	0532                	slli	a0,a0,0xc
  return pa;
    80001098:	bfcd                	j	8000108a <walkaddr+0x2e>
    return 0;
    8000109a:	4501                	li	a0,0
    8000109c:	b7fd                	j	8000108a <walkaddr+0x2e>

000000008000109e <mappages>:
// physical addresses starting at pa. va and size might not
// be page-aligned. Returns 0 on success, -1 if walk() couldn't
// allocate a needed page-table page.
int
mappages(pagetable_t pagetable, uint64 va, uint64 size, uint64 pa, int perm)
{
    8000109e:	715d                	addi	sp,sp,-80
    800010a0:	e486                	sd	ra,72(sp)
    800010a2:	e0a2                	sd	s0,64(sp)
    800010a4:	fc26                	sd	s1,56(sp)
    800010a6:	f84a                	sd	s2,48(sp)
    800010a8:	f44e                	sd	s3,40(sp)
    800010aa:	f052                	sd	s4,32(sp)
    800010ac:	ec56                	sd	s5,24(sp)
    800010ae:	e85a                	sd	s6,16(sp)
    800010b0:	e45e                	sd	s7,8(sp)
    800010b2:	0880                	addi	s0,sp,80
  uint64 a, last;
  pte_t *pte;

  if(size == 0)
    800010b4:	c639                	beqz	a2,80001102 <mappages+0x64>
    800010b6:	8aaa                	mv	s5,a0
    800010b8:	8b3a                	mv	s6,a4
    panic("mappages: size");
  
  a = PGROUNDDOWN(va);
    800010ba:	77fd                	lui	a5,0xfffff
    800010bc:	00f5fa33          	and	s4,a1,a5
  last = PGROUNDDOWN(va + size - 1);
    800010c0:	15fd                	addi	a1,a1,-1
    800010c2:	00c589b3          	add	s3,a1,a2
    800010c6:	00f9f9b3          	and	s3,s3,a5
  a = PGROUNDDOWN(va);
    800010ca:	8952                	mv	s2,s4
    800010cc:	41468a33          	sub	s4,a3,s4
    if(*pte & PTE_V)
      panic("mappages: remap");
    *pte = PA2PTE(pa) | perm | PTE_V;
    if(a == last)
      break;
    a += PGSIZE;
    800010d0:	6b85                	lui	s7,0x1
    800010d2:	012a04b3          	add	s1,s4,s2
    if((pte = walk(pagetable, a, 1)) == 0)
    800010d6:	4605                	li	a2,1
    800010d8:	85ca                	mv	a1,s2
    800010da:	8556                	mv	a0,s5
    800010dc:	00000097          	auipc	ra,0x0
    800010e0:	eda080e7          	jalr	-294(ra) # 80000fb6 <walk>
    800010e4:	cd1d                	beqz	a0,80001122 <mappages+0x84>
    if(*pte & PTE_V)
    800010e6:	611c                	ld	a5,0(a0)
    800010e8:	8b85                	andi	a5,a5,1
    800010ea:	e785                	bnez	a5,80001112 <mappages+0x74>
    *pte = PA2PTE(pa) | perm | PTE_V;
    800010ec:	80b1                	srli	s1,s1,0xc
    800010ee:	04aa                	slli	s1,s1,0xa
    800010f0:	0164e4b3          	or	s1,s1,s6
    800010f4:	0014e493          	ori	s1,s1,1
    800010f8:	e104                	sd	s1,0(a0)
    if(a == last)
    800010fa:	05390063          	beq	s2,s3,8000113a <mappages+0x9c>
    a += PGSIZE;
    800010fe:	995e                	add	s2,s2,s7
    if((pte = walk(pagetable, a, 1)) == 0)
    80001100:	bfc9                	j	800010d2 <mappages+0x34>
    panic("mappages: size");
    80001102:	00007517          	auipc	a0,0x7
    80001106:	fd650513          	addi	a0,a0,-42 # 800080d8 <digits+0x98>
    8000110a:	fffff097          	auipc	ra,0xfffff
    8000110e:	434080e7          	jalr	1076(ra) # 8000053e <panic>
      panic("mappages: remap");
    80001112:	00007517          	auipc	a0,0x7
    80001116:	fd650513          	addi	a0,a0,-42 # 800080e8 <digits+0xa8>
    8000111a:	fffff097          	auipc	ra,0xfffff
    8000111e:	424080e7          	jalr	1060(ra) # 8000053e <panic>
      return -1;
    80001122:	557d                	li	a0,-1
    pa += PGSIZE;
  }
  return 0;
}
    80001124:	60a6                	ld	ra,72(sp)
    80001126:	6406                	ld	s0,64(sp)
    80001128:	74e2                	ld	s1,56(sp)
    8000112a:	7942                	ld	s2,48(sp)
    8000112c:	79a2                	ld	s3,40(sp)
    8000112e:	7a02                	ld	s4,32(sp)
    80001130:	6ae2                	ld	s5,24(sp)
    80001132:	6b42                	ld	s6,16(sp)
    80001134:	6ba2                	ld	s7,8(sp)
    80001136:	6161                	addi	sp,sp,80
    80001138:	8082                	ret
  return 0;
    8000113a:	4501                	li	a0,0
    8000113c:	b7e5                	j	80001124 <mappages+0x86>

000000008000113e <kvmmap>:
{
    8000113e:	1141                	addi	sp,sp,-16
    80001140:	e406                	sd	ra,8(sp)
    80001142:	e022                	sd	s0,0(sp)
    80001144:	0800                	addi	s0,sp,16
    80001146:	87b6                	mv	a5,a3
  if(mappages(kpgtbl, va, sz, pa, perm) != 0)
    80001148:	86b2                	mv	a3,a2
    8000114a:	863e                	mv	a2,a5
    8000114c:	00000097          	auipc	ra,0x0
    80001150:	f52080e7          	jalr	-174(ra) # 8000109e <mappages>
    80001154:	e509                	bnez	a0,8000115e <kvmmap+0x20>
}
    80001156:	60a2                	ld	ra,8(sp)
    80001158:	6402                	ld	s0,0(sp)
    8000115a:	0141                	addi	sp,sp,16
    8000115c:	8082                	ret
    panic("kvmmap");
    8000115e:	00007517          	auipc	a0,0x7
    80001162:	f9a50513          	addi	a0,a0,-102 # 800080f8 <digits+0xb8>
    80001166:	fffff097          	auipc	ra,0xfffff
    8000116a:	3d8080e7          	jalr	984(ra) # 8000053e <panic>

000000008000116e <kvmmake>:
{
    8000116e:	1101                	addi	sp,sp,-32
    80001170:	ec06                	sd	ra,24(sp)
    80001172:	e822                	sd	s0,16(sp)
    80001174:	e426                	sd	s1,8(sp)
    80001176:	e04a                	sd	s2,0(sp)
    80001178:	1000                	addi	s0,sp,32
  kpgtbl = (pagetable_t) kalloc();
    8000117a:	00000097          	auipc	ra,0x0
    8000117e:	96c080e7          	jalr	-1684(ra) # 80000ae6 <kalloc>
    80001182:	84aa                	mv	s1,a0
  memset(kpgtbl, 0, PGSIZE);
    80001184:	6605                	lui	a2,0x1
    80001186:	4581                	li	a1,0
    80001188:	00000097          	auipc	ra,0x0
    8000118c:	b4a080e7          	jalr	-1206(ra) # 80000cd2 <memset>
  kvmmap(kpgtbl, UART0, UART0, PGSIZE, PTE_R | PTE_W);
    80001190:	4719                	li	a4,6
    80001192:	6685                	lui	a3,0x1
    80001194:	10000637          	lui	a2,0x10000
    80001198:	100005b7          	lui	a1,0x10000
    8000119c:	8526                	mv	a0,s1
    8000119e:	00000097          	auipc	ra,0x0
    800011a2:	fa0080e7          	jalr	-96(ra) # 8000113e <kvmmap>
  kvmmap(kpgtbl, VIRTIO0, VIRTIO0, PGSIZE, PTE_R | PTE_W);
    800011a6:	4719                	li	a4,6
    800011a8:	6685                	lui	a3,0x1
    800011aa:	10001637          	lui	a2,0x10001
    800011ae:	100015b7          	lui	a1,0x10001
    800011b2:	8526                	mv	a0,s1
    800011b4:	00000097          	auipc	ra,0x0
    800011b8:	f8a080e7          	jalr	-118(ra) # 8000113e <kvmmap>
  kvmmap(kpgtbl, PLIC, PLIC, 0x400000, PTE_R | PTE_W);
    800011bc:	4719                	li	a4,6
    800011be:	004006b7          	lui	a3,0x400
    800011c2:	0c000637          	lui	a2,0xc000
    800011c6:	0c0005b7          	lui	a1,0xc000
    800011ca:	8526                	mv	a0,s1
    800011cc:	00000097          	auipc	ra,0x0
    800011d0:	f72080e7          	jalr	-142(ra) # 8000113e <kvmmap>
  kvmmap(kpgtbl, KERNBASE, KERNBASE, (uint64)etext-KERNBASE, PTE_R | PTE_X);
    800011d4:	00007917          	auipc	s2,0x7
    800011d8:	e2c90913          	addi	s2,s2,-468 # 80008000 <etext>
    800011dc:	4729                	li	a4,10
    800011de:	80007697          	auipc	a3,0x80007
    800011e2:	e2268693          	addi	a3,a3,-478 # 8000 <_entry-0x7fff8000>
    800011e6:	4605                	li	a2,1
    800011e8:	067e                	slli	a2,a2,0x1f
    800011ea:	85b2                	mv	a1,a2
    800011ec:	8526                	mv	a0,s1
    800011ee:	00000097          	auipc	ra,0x0
    800011f2:	f50080e7          	jalr	-176(ra) # 8000113e <kvmmap>
  kvmmap(kpgtbl, (uint64)etext, (uint64)etext, PHYSTOP-(uint64)etext, PTE_R | PTE_W);
    800011f6:	4719                	li	a4,6
    800011f8:	46c5                	li	a3,17
    800011fa:	06ee                	slli	a3,a3,0x1b
    800011fc:	412686b3          	sub	a3,a3,s2
    80001200:	864a                	mv	a2,s2
    80001202:	85ca                	mv	a1,s2
    80001204:	8526                	mv	a0,s1
    80001206:	00000097          	auipc	ra,0x0
    8000120a:	f38080e7          	jalr	-200(ra) # 8000113e <kvmmap>
  kvmmap(kpgtbl, TRAMPOLINE, (uint64)trampoline, PGSIZE, PTE_R | PTE_X);
    8000120e:	4729                	li	a4,10
    80001210:	6685                	lui	a3,0x1
    80001212:	00006617          	auipc	a2,0x6
    80001216:	dee60613          	addi	a2,a2,-530 # 80007000 <_trampoline>
    8000121a:	040005b7          	lui	a1,0x4000
    8000121e:	15fd                	addi	a1,a1,-1
    80001220:	05b2                	slli	a1,a1,0xc
    80001222:	8526                	mv	a0,s1
    80001224:	00000097          	auipc	ra,0x0
    80001228:	f1a080e7          	jalr	-230(ra) # 8000113e <kvmmap>
  proc_mapstacks(kpgtbl);
    8000122c:	8526                	mv	a0,s1
    8000122e:	00000097          	auipc	ra,0x0
    80001232:	608080e7          	jalr	1544(ra) # 80001836 <proc_mapstacks>
}
    80001236:	8526                	mv	a0,s1
    80001238:	60e2                	ld	ra,24(sp)
    8000123a:	6442                	ld	s0,16(sp)
    8000123c:	64a2                	ld	s1,8(sp)
    8000123e:	6902                	ld	s2,0(sp)
    80001240:	6105                	addi	sp,sp,32
    80001242:	8082                	ret

0000000080001244 <kvminit>:
{
    80001244:	1141                	addi	sp,sp,-16
    80001246:	e406                	sd	ra,8(sp)
    80001248:	e022                	sd	s0,0(sp)
    8000124a:	0800                	addi	s0,sp,16
  kernel_pagetable = kvmmake();
    8000124c:	00000097          	auipc	ra,0x0
    80001250:	f22080e7          	jalr	-222(ra) # 8000116e <kvmmake>
    80001254:	00007797          	auipc	a5,0x7
    80001258:	66a7be23          	sd	a0,1660(a5) # 800088d0 <kernel_pagetable>
}
    8000125c:	60a2                	ld	ra,8(sp)
    8000125e:	6402                	ld	s0,0(sp)
    80001260:	0141                	addi	sp,sp,16
    80001262:	8082                	ret

0000000080001264 <uvmunmap>:
// Remove npages of mappings starting from va. va must be
// page-aligned. The mappings must exist.
// Optionally free the physical memory.
void
uvmunmap(pagetable_t pagetable, uint64 va, uint64 npages, int do_free)
{
    80001264:	715d                	addi	sp,sp,-80
    80001266:	e486                	sd	ra,72(sp)
    80001268:	e0a2                	sd	s0,64(sp)
    8000126a:	fc26                	sd	s1,56(sp)
    8000126c:	f84a                	sd	s2,48(sp)
    8000126e:	f44e                	sd	s3,40(sp)
    80001270:	f052                	sd	s4,32(sp)
    80001272:	ec56                	sd	s5,24(sp)
    80001274:	e85a                	sd	s6,16(sp)
    80001276:	e45e                	sd	s7,8(sp)
    80001278:	0880                	addi	s0,sp,80
  uint64 a;
  pte_t *pte;

  if((va % PGSIZE) != 0)
    8000127a:	03459793          	slli	a5,a1,0x34
    8000127e:	e795                	bnez	a5,800012aa <uvmunmap+0x46>
    80001280:	8a2a                	mv	s4,a0
    80001282:	892e                	mv	s2,a1
    80001284:	8ab6                	mv	s5,a3
    panic("uvmunmap: not aligned");

  for(a = va; a < va + npages*PGSIZE; a += PGSIZE){
    80001286:	0632                	slli	a2,a2,0xc
    80001288:	00b609b3          	add	s3,a2,a1
    if((pte = walk(pagetable, a, 0)) == 0)
      panic("uvmunmap: walk");
    if((*pte & PTE_V) == 0)
      panic("uvmunmap: not mapped");
    if(PTE_FLAGS(*pte) == PTE_V)
    8000128c:	4b85                	li	s7,1
  for(a = va; a < va + npages*PGSIZE; a += PGSIZE){
    8000128e:	6b05                	lui	s6,0x1
    80001290:	0735e263          	bltu	a1,s3,800012f4 <uvmunmap+0x90>
      uint64 pa = PTE2PA(*pte);
      kfree((void*)pa);
    }
    *pte = 0;
  }
}
    80001294:	60a6                	ld	ra,72(sp)
    80001296:	6406                	ld	s0,64(sp)
    80001298:	74e2                	ld	s1,56(sp)
    8000129a:	7942                	ld	s2,48(sp)
    8000129c:	79a2                	ld	s3,40(sp)
    8000129e:	7a02                	ld	s4,32(sp)
    800012a0:	6ae2                	ld	s5,24(sp)
    800012a2:	6b42                	ld	s6,16(sp)
    800012a4:	6ba2                	ld	s7,8(sp)
    800012a6:	6161                	addi	sp,sp,80
    800012a8:	8082                	ret
    panic("uvmunmap: not aligned");
    800012aa:	00007517          	auipc	a0,0x7
    800012ae:	e5650513          	addi	a0,a0,-426 # 80008100 <digits+0xc0>
    800012b2:	fffff097          	auipc	ra,0xfffff
    800012b6:	28c080e7          	jalr	652(ra) # 8000053e <panic>
      panic("uvmunmap: walk");
    800012ba:	00007517          	auipc	a0,0x7
    800012be:	e5e50513          	addi	a0,a0,-418 # 80008118 <digits+0xd8>
    800012c2:	fffff097          	auipc	ra,0xfffff
    800012c6:	27c080e7          	jalr	636(ra) # 8000053e <panic>
      panic("uvmunmap: not mapped");
    800012ca:	00007517          	auipc	a0,0x7
    800012ce:	e5e50513          	addi	a0,a0,-418 # 80008128 <digits+0xe8>
    800012d2:	fffff097          	auipc	ra,0xfffff
    800012d6:	26c080e7          	jalr	620(ra) # 8000053e <panic>
      panic("uvmunmap: not a leaf");
    800012da:	00007517          	auipc	a0,0x7
    800012de:	e6650513          	addi	a0,a0,-410 # 80008140 <digits+0x100>
    800012e2:	fffff097          	auipc	ra,0xfffff
    800012e6:	25c080e7          	jalr	604(ra) # 8000053e <panic>
    *pte = 0;
    800012ea:	0004b023          	sd	zero,0(s1)
  for(a = va; a < va + npages*PGSIZE; a += PGSIZE){
    800012ee:	995a                	add	s2,s2,s6
    800012f0:	fb3972e3          	bgeu	s2,s3,80001294 <uvmunmap+0x30>
    if((pte = walk(pagetable, a, 0)) == 0)
    800012f4:	4601                	li	a2,0
    800012f6:	85ca                	mv	a1,s2
    800012f8:	8552                	mv	a0,s4
    800012fa:	00000097          	auipc	ra,0x0
    800012fe:	cbc080e7          	jalr	-836(ra) # 80000fb6 <walk>
    80001302:	84aa                	mv	s1,a0
    80001304:	d95d                	beqz	a0,800012ba <uvmunmap+0x56>
    if((*pte & PTE_V) == 0)
    80001306:	6108                	ld	a0,0(a0)
    80001308:	00157793          	andi	a5,a0,1
    8000130c:	dfdd                	beqz	a5,800012ca <uvmunmap+0x66>
    if(PTE_FLAGS(*pte) == PTE_V)
    8000130e:	3ff57793          	andi	a5,a0,1023
    80001312:	fd7784e3          	beq	a5,s7,800012da <uvmunmap+0x76>
    if(do_free){
    80001316:	fc0a8ae3          	beqz	s5,800012ea <uvmunmap+0x86>
      uint64 pa = PTE2PA(*pte);
    8000131a:	8129                	srli	a0,a0,0xa
      kfree((void*)pa);
    8000131c:	0532                	slli	a0,a0,0xc
    8000131e:	fffff097          	auipc	ra,0xfffff
    80001322:	6cc080e7          	jalr	1740(ra) # 800009ea <kfree>
    80001326:	b7d1                	j	800012ea <uvmunmap+0x86>

0000000080001328 <uvmcreate>:

// create an empty user page table.
// returns 0 if out of memory.
pagetable_t
uvmcreate()
{
    80001328:	1101                	addi	sp,sp,-32
    8000132a:	ec06                	sd	ra,24(sp)
    8000132c:	e822                	sd	s0,16(sp)
    8000132e:	e426                	sd	s1,8(sp)
    80001330:	1000                	addi	s0,sp,32
  pagetable_t pagetable;
  pagetable = (pagetable_t) kalloc();
    80001332:	fffff097          	auipc	ra,0xfffff
    80001336:	7b4080e7          	jalr	1972(ra) # 80000ae6 <kalloc>
    8000133a:	84aa                	mv	s1,a0
  if(pagetable == 0)
    8000133c:	c519                	beqz	a0,8000134a <uvmcreate+0x22>
    return 0;
  memset(pagetable, 0, PGSIZE);
    8000133e:	6605                	lui	a2,0x1
    80001340:	4581                	li	a1,0
    80001342:	00000097          	auipc	ra,0x0
    80001346:	990080e7          	jalr	-1648(ra) # 80000cd2 <memset>
  return pagetable;
}
    8000134a:	8526                	mv	a0,s1
    8000134c:	60e2                	ld	ra,24(sp)
    8000134e:	6442                	ld	s0,16(sp)
    80001350:	64a2                	ld	s1,8(sp)
    80001352:	6105                	addi	sp,sp,32
    80001354:	8082                	ret

0000000080001356 <uvmfirst>:
// Load the user initcode into address 0 of pagetable,
// for the very first process.
// sz must be less than a page.
void
uvmfirst(pagetable_t pagetable, uchar *src, uint sz)
{
    80001356:	7179                	addi	sp,sp,-48
    80001358:	f406                	sd	ra,40(sp)
    8000135a:	f022                	sd	s0,32(sp)
    8000135c:	ec26                	sd	s1,24(sp)
    8000135e:	e84a                	sd	s2,16(sp)
    80001360:	e44e                	sd	s3,8(sp)
    80001362:	e052                	sd	s4,0(sp)
    80001364:	1800                	addi	s0,sp,48
  char *mem;

  if(sz >= PGSIZE)
    80001366:	6785                	lui	a5,0x1
    80001368:	04f67863          	bgeu	a2,a5,800013b8 <uvmfirst+0x62>
    8000136c:	8a2a                	mv	s4,a0
    8000136e:	89ae                	mv	s3,a1
    80001370:	84b2                	mv	s1,a2
    panic("uvmfirst: more than a page");
  mem = kalloc();
    80001372:	fffff097          	auipc	ra,0xfffff
    80001376:	774080e7          	jalr	1908(ra) # 80000ae6 <kalloc>
    8000137a:	892a                	mv	s2,a0
  memset(mem, 0, PGSIZE);
    8000137c:	6605                	lui	a2,0x1
    8000137e:	4581                	li	a1,0
    80001380:	00000097          	auipc	ra,0x0
    80001384:	952080e7          	jalr	-1710(ra) # 80000cd2 <memset>
  mappages(pagetable, 0, PGSIZE, (uint64)mem, PTE_W|PTE_R|PTE_X|PTE_U);
    80001388:	4779                	li	a4,30
    8000138a:	86ca                	mv	a3,s2
    8000138c:	6605                	lui	a2,0x1
    8000138e:	4581                	li	a1,0
    80001390:	8552                	mv	a0,s4
    80001392:	00000097          	auipc	ra,0x0
    80001396:	d0c080e7          	jalr	-756(ra) # 8000109e <mappages>
  memmove(mem, src, sz);
    8000139a:	8626                	mv	a2,s1
    8000139c:	85ce                	mv	a1,s3
    8000139e:	854a                	mv	a0,s2
    800013a0:	00000097          	auipc	ra,0x0
    800013a4:	98e080e7          	jalr	-1650(ra) # 80000d2e <memmove>
}
    800013a8:	70a2                	ld	ra,40(sp)
    800013aa:	7402                	ld	s0,32(sp)
    800013ac:	64e2                	ld	s1,24(sp)
    800013ae:	6942                	ld	s2,16(sp)
    800013b0:	69a2                	ld	s3,8(sp)
    800013b2:	6a02                	ld	s4,0(sp)
    800013b4:	6145                	addi	sp,sp,48
    800013b6:	8082                	ret
    panic("uvmfirst: more than a page");
    800013b8:	00007517          	auipc	a0,0x7
    800013bc:	da050513          	addi	a0,a0,-608 # 80008158 <digits+0x118>
    800013c0:	fffff097          	auipc	ra,0xfffff
    800013c4:	17e080e7          	jalr	382(ra) # 8000053e <panic>

00000000800013c8 <uvmdealloc>:
// newsz.  oldsz and newsz need not be page-aligned, nor does newsz
// need to be less than oldsz.  oldsz can be larger than the actual
// process size.  Returns the new process size.
uint64
uvmdealloc(pagetable_t pagetable, uint64 oldsz, uint64 newsz)
{
    800013c8:	1101                	addi	sp,sp,-32
    800013ca:	ec06                	sd	ra,24(sp)
    800013cc:	e822                	sd	s0,16(sp)
    800013ce:	e426                	sd	s1,8(sp)
    800013d0:	1000                	addi	s0,sp,32
  if(newsz >= oldsz)
    return oldsz;
    800013d2:	84ae                	mv	s1,a1
  if(newsz >= oldsz)
    800013d4:	00b67d63          	bgeu	a2,a1,800013ee <uvmdealloc+0x26>
    800013d8:	84b2                	mv	s1,a2

  if(PGROUNDUP(newsz) < PGROUNDUP(oldsz)){
    800013da:	6785                	lui	a5,0x1
    800013dc:	17fd                	addi	a5,a5,-1
    800013de:	00f60733          	add	a4,a2,a5
    800013e2:	767d                	lui	a2,0xfffff
    800013e4:	8f71                	and	a4,a4,a2
    800013e6:	97ae                	add	a5,a5,a1
    800013e8:	8ff1                	and	a5,a5,a2
    800013ea:	00f76863          	bltu	a4,a5,800013fa <uvmdealloc+0x32>
    int npages = (PGROUNDUP(oldsz) - PGROUNDUP(newsz)) / PGSIZE;
    uvmunmap(pagetable, PGROUNDUP(newsz), npages, 1);
  }

  return newsz;
}
    800013ee:	8526                	mv	a0,s1
    800013f0:	60e2                	ld	ra,24(sp)
    800013f2:	6442                	ld	s0,16(sp)
    800013f4:	64a2                	ld	s1,8(sp)
    800013f6:	6105                	addi	sp,sp,32
    800013f8:	8082                	ret
    int npages = (PGROUNDUP(oldsz) - PGROUNDUP(newsz)) / PGSIZE;
    800013fa:	8f99                	sub	a5,a5,a4
    800013fc:	83b1                	srli	a5,a5,0xc
    uvmunmap(pagetable, PGROUNDUP(newsz), npages, 1);
    800013fe:	4685                	li	a3,1
    80001400:	0007861b          	sext.w	a2,a5
    80001404:	85ba                	mv	a1,a4
    80001406:	00000097          	auipc	ra,0x0
    8000140a:	e5e080e7          	jalr	-418(ra) # 80001264 <uvmunmap>
    8000140e:	b7c5                	j	800013ee <uvmdealloc+0x26>

0000000080001410 <uvmalloc>:
  if(newsz < oldsz)
    80001410:	0ab66563          	bltu	a2,a1,800014ba <uvmalloc+0xaa>
{
    80001414:	7139                	addi	sp,sp,-64
    80001416:	fc06                	sd	ra,56(sp)
    80001418:	f822                	sd	s0,48(sp)
    8000141a:	f426                	sd	s1,40(sp)
    8000141c:	f04a                	sd	s2,32(sp)
    8000141e:	ec4e                	sd	s3,24(sp)
    80001420:	e852                	sd	s4,16(sp)
    80001422:	e456                	sd	s5,8(sp)
    80001424:	e05a                	sd	s6,0(sp)
    80001426:	0080                	addi	s0,sp,64
    80001428:	8aaa                	mv	s5,a0
    8000142a:	8a32                	mv	s4,a2
  oldsz = PGROUNDUP(oldsz);
    8000142c:	6985                	lui	s3,0x1
    8000142e:	19fd                	addi	s3,s3,-1
    80001430:	95ce                	add	a1,a1,s3
    80001432:	79fd                	lui	s3,0xfffff
    80001434:	0135f9b3          	and	s3,a1,s3
  for(a = oldsz; a < newsz; a += PGSIZE){
    80001438:	08c9f363          	bgeu	s3,a2,800014be <uvmalloc+0xae>
    8000143c:	894e                	mv	s2,s3
    if(mappages(pagetable, a, PGSIZE, (uint64)mem, PTE_R|PTE_U|xperm) != 0){
    8000143e:	0126eb13          	ori	s6,a3,18
    mem = kalloc();
    80001442:	fffff097          	auipc	ra,0xfffff
    80001446:	6a4080e7          	jalr	1700(ra) # 80000ae6 <kalloc>
    8000144a:	84aa                	mv	s1,a0
    if(mem == 0){
    8000144c:	c51d                	beqz	a0,8000147a <uvmalloc+0x6a>
    memset(mem, 0, PGSIZE);
    8000144e:	6605                	lui	a2,0x1
    80001450:	4581                	li	a1,0
    80001452:	00000097          	auipc	ra,0x0
    80001456:	880080e7          	jalr	-1920(ra) # 80000cd2 <memset>
    if(mappages(pagetable, a, PGSIZE, (uint64)mem, PTE_R|PTE_U|xperm) != 0){
    8000145a:	875a                	mv	a4,s6
    8000145c:	86a6                	mv	a3,s1
    8000145e:	6605                	lui	a2,0x1
    80001460:	85ca                	mv	a1,s2
    80001462:	8556                	mv	a0,s5
    80001464:	00000097          	auipc	ra,0x0
    80001468:	c3a080e7          	jalr	-966(ra) # 8000109e <mappages>
    8000146c:	e90d                	bnez	a0,8000149e <uvmalloc+0x8e>
  for(a = oldsz; a < newsz; a += PGSIZE){
    8000146e:	6785                	lui	a5,0x1
    80001470:	993e                	add	s2,s2,a5
    80001472:	fd4968e3          	bltu	s2,s4,80001442 <uvmalloc+0x32>
  return newsz;
    80001476:	8552                	mv	a0,s4
    80001478:	a809                	j	8000148a <uvmalloc+0x7a>
      uvmdealloc(pagetable, a, oldsz);
    8000147a:	864e                	mv	a2,s3
    8000147c:	85ca                	mv	a1,s2
    8000147e:	8556                	mv	a0,s5
    80001480:	00000097          	auipc	ra,0x0
    80001484:	f48080e7          	jalr	-184(ra) # 800013c8 <uvmdealloc>
      return 0;
    80001488:	4501                	li	a0,0
}
    8000148a:	70e2                	ld	ra,56(sp)
    8000148c:	7442                	ld	s0,48(sp)
    8000148e:	74a2                	ld	s1,40(sp)
    80001490:	7902                	ld	s2,32(sp)
    80001492:	69e2                	ld	s3,24(sp)
    80001494:	6a42                	ld	s4,16(sp)
    80001496:	6aa2                	ld	s5,8(sp)
    80001498:	6b02                	ld	s6,0(sp)
    8000149a:	6121                	addi	sp,sp,64
    8000149c:	8082                	ret
      kfree(mem);
    8000149e:	8526                	mv	a0,s1
    800014a0:	fffff097          	auipc	ra,0xfffff
    800014a4:	54a080e7          	jalr	1354(ra) # 800009ea <kfree>
      uvmdealloc(pagetable, a, oldsz);
    800014a8:	864e                	mv	a2,s3
    800014aa:	85ca                	mv	a1,s2
    800014ac:	8556                	mv	a0,s5
    800014ae:	00000097          	auipc	ra,0x0
    800014b2:	f1a080e7          	jalr	-230(ra) # 800013c8 <uvmdealloc>
      return 0;
    800014b6:	4501                	li	a0,0
    800014b8:	bfc9                	j	8000148a <uvmalloc+0x7a>
    return oldsz;
    800014ba:	852e                	mv	a0,a1
}
    800014bc:	8082                	ret
  return newsz;
    800014be:	8532                	mv	a0,a2
    800014c0:	b7e9                	j	8000148a <uvmalloc+0x7a>

00000000800014c2 <freewalk>:

// Recursively free page-table pages.
// All leaf mappings must already have been removed.
void
freewalk(pagetable_t pagetable)
{
    800014c2:	7179                	addi	sp,sp,-48
    800014c4:	f406                	sd	ra,40(sp)
    800014c6:	f022                	sd	s0,32(sp)
    800014c8:	ec26                	sd	s1,24(sp)
    800014ca:	e84a                	sd	s2,16(sp)
    800014cc:	e44e                	sd	s3,8(sp)
    800014ce:	e052                	sd	s4,0(sp)
    800014d0:	1800                	addi	s0,sp,48
    800014d2:	8a2a                	mv	s4,a0
  // there are 2^9 = 512 PTEs in a page table.
  for(int i = 0; i < 512; i++){
    800014d4:	84aa                	mv	s1,a0
    800014d6:	6905                	lui	s2,0x1
    800014d8:	992a                	add	s2,s2,a0
    pte_t pte = pagetable[i];
    if((pte & PTE_V) && (pte & (PTE_R|PTE_W|PTE_X)) == 0){
    800014da:	4985                	li	s3,1
    800014dc:	a821                	j	800014f4 <freewalk+0x32>
      // this PTE points to a lower-level page table.
      uint64 child = PTE2PA(pte);
    800014de:	8129                	srli	a0,a0,0xa
      freewalk((pagetable_t)child);
    800014e0:	0532                	slli	a0,a0,0xc
    800014e2:	00000097          	auipc	ra,0x0
    800014e6:	fe0080e7          	jalr	-32(ra) # 800014c2 <freewalk>
      pagetable[i] = 0;
    800014ea:	0004b023          	sd	zero,0(s1)
  for(int i = 0; i < 512; i++){
    800014ee:	04a1                	addi	s1,s1,8
    800014f0:	03248163          	beq	s1,s2,80001512 <freewalk+0x50>
    pte_t pte = pagetable[i];
    800014f4:	6088                	ld	a0,0(s1)
    if((pte & PTE_V) && (pte & (PTE_R|PTE_W|PTE_X)) == 0){
    800014f6:	00f57793          	andi	a5,a0,15
    800014fa:	ff3782e3          	beq	a5,s3,800014de <freewalk+0x1c>
    } else if(pte & PTE_V){
    800014fe:	8905                	andi	a0,a0,1
    80001500:	d57d                	beqz	a0,800014ee <freewalk+0x2c>
      panic("freewalk: leaf");
    80001502:	00007517          	auipc	a0,0x7
    80001506:	c7650513          	addi	a0,a0,-906 # 80008178 <digits+0x138>
    8000150a:	fffff097          	auipc	ra,0xfffff
    8000150e:	034080e7          	jalr	52(ra) # 8000053e <panic>
    }
  }
  kfree((void*)pagetable);
    80001512:	8552                	mv	a0,s4
    80001514:	fffff097          	auipc	ra,0xfffff
    80001518:	4d6080e7          	jalr	1238(ra) # 800009ea <kfree>
}
    8000151c:	70a2                	ld	ra,40(sp)
    8000151e:	7402                	ld	s0,32(sp)
    80001520:	64e2                	ld	s1,24(sp)
    80001522:	6942                	ld	s2,16(sp)
    80001524:	69a2                	ld	s3,8(sp)
    80001526:	6a02                	ld	s4,0(sp)
    80001528:	6145                	addi	sp,sp,48
    8000152a:	8082                	ret

000000008000152c <uvmfree>:

// Free user memory pages,
// then free page-table pages.
void
uvmfree(pagetable_t pagetable, uint64 sz)
{
    8000152c:	1101                	addi	sp,sp,-32
    8000152e:	ec06                	sd	ra,24(sp)
    80001530:	e822                	sd	s0,16(sp)
    80001532:	e426                	sd	s1,8(sp)
    80001534:	1000                	addi	s0,sp,32
    80001536:	84aa                	mv	s1,a0
  if(sz > 0)
    80001538:	e999                	bnez	a1,8000154e <uvmfree+0x22>
    uvmunmap(pagetable, 0, PGROUNDUP(sz)/PGSIZE, 1);
  freewalk(pagetable);
    8000153a:	8526                	mv	a0,s1
    8000153c:	00000097          	auipc	ra,0x0
    80001540:	f86080e7          	jalr	-122(ra) # 800014c2 <freewalk>
}
    80001544:	60e2                	ld	ra,24(sp)
    80001546:	6442                	ld	s0,16(sp)
    80001548:	64a2                	ld	s1,8(sp)
    8000154a:	6105                	addi	sp,sp,32
    8000154c:	8082                	ret
    uvmunmap(pagetable, 0, PGROUNDUP(sz)/PGSIZE, 1);
    8000154e:	6605                	lui	a2,0x1
    80001550:	167d                	addi	a2,a2,-1
    80001552:	962e                	add	a2,a2,a1
    80001554:	4685                	li	a3,1
    80001556:	8231                	srli	a2,a2,0xc
    80001558:	4581                	li	a1,0
    8000155a:	00000097          	auipc	ra,0x0
    8000155e:	d0a080e7          	jalr	-758(ra) # 80001264 <uvmunmap>
    80001562:	bfe1                	j	8000153a <uvmfree+0xe>

0000000080001564 <uvmcopy>:
  pte_t *pte;
  uint64 pa, i;
  uint flags;
  char *mem;

  for(i = 0; i < sz; i += PGSIZE){
    80001564:	c679                	beqz	a2,80001632 <uvmcopy+0xce>
{
    80001566:	715d                	addi	sp,sp,-80
    80001568:	e486                	sd	ra,72(sp)
    8000156a:	e0a2                	sd	s0,64(sp)
    8000156c:	fc26                	sd	s1,56(sp)
    8000156e:	f84a                	sd	s2,48(sp)
    80001570:	f44e                	sd	s3,40(sp)
    80001572:	f052                	sd	s4,32(sp)
    80001574:	ec56                	sd	s5,24(sp)
    80001576:	e85a                	sd	s6,16(sp)
    80001578:	e45e                	sd	s7,8(sp)
    8000157a:	0880                	addi	s0,sp,80
    8000157c:	8b2a                	mv	s6,a0
    8000157e:	8aae                	mv	s5,a1
    80001580:	8a32                	mv	s4,a2
  for(i = 0; i < sz; i += PGSIZE){
    80001582:	4981                	li	s3,0
    if((pte = walk(old, i, 0)) == 0)
    80001584:	4601                	li	a2,0
    80001586:	85ce                	mv	a1,s3
    80001588:	855a                	mv	a0,s6
    8000158a:	00000097          	auipc	ra,0x0
    8000158e:	a2c080e7          	jalr	-1492(ra) # 80000fb6 <walk>
    80001592:	c531                	beqz	a0,800015de <uvmcopy+0x7a>
      panic("uvmcopy: pte should exist");
    if((*pte & PTE_V) == 0)
    80001594:	6118                	ld	a4,0(a0)
    80001596:	00177793          	andi	a5,a4,1
    8000159a:	cbb1                	beqz	a5,800015ee <uvmcopy+0x8a>
      panic("uvmcopy: page not present");
    pa = PTE2PA(*pte);
    8000159c:	00a75593          	srli	a1,a4,0xa
    800015a0:	00c59b93          	slli	s7,a1,0xc
    flags = PTE_FLAGS(*pte);
    800015a4:	3ff77493          	andi	s1,a4,1023
    if((mem = kalloc()) == 0)
    800015a8:	fffff097          	auipc	ra,0xfffff
    800015ac:	53e080e7          	jalr	1342(ra) # 80000ae6 <kalloc>
    800015b0:	892a                	mv	s2,a0
    800015b2:	c939                	beqz	a0,80001608 <uvmcopy+0xa4>
      goto err;
    memmove(mem, (char*)pa, PGSIZE);
    800015b4:	6605                	lui	a2,0x1
    800015b6:	85de                	mv	a1,s7
    800015b8:	fffff097          	auipc	ra,0xfffff
    800015bc:	776080e7          	jalr	1910(ra) # 80000d2e <memmove>
    if(mappages(new, i, PGSIZE, (uint64)mem, flags) != 0){
    800015c0:	8726                	mv	a4,s1
    800015c2:	86ca                	mv	a3,s2
    800015c4:	6605                	lui	a2,0x1
    800015c6:	85ce                	mv	a1,s3
    800015c8:	8556                	mv	a0,s5
    800015ca:	00000097          	auipc	ra,0x0
    800015ce:	ad4080e7          	jalr	-1324(ra) # 8000109e <mappages>
    800015d2:	e515                	bnez	a0,800015fe <uvmcopy+0x9a>
  for(i = 0; i < sz; i += PGSIZE){
    800015d4:	6785                	lui	a5,0x1
    800015d6:	99be                	add	s3,s3,a5
    800015d8:	fb49e6e3          	bltu	s3,s4,80001584 <uvmcopy+0x20>
    800015dc:	a081                	j	8000161c <uvmcopy+0xb8>
      panic("uvmcopy: pte should exist");
    800015de:	00007517          	auipc	a0,0x7
    800015e2:	baa50513          	addi	a0,a0,-1110 # 80008188 <digits+0x148>
    800015e6:	fffff097          	auipc	ra,0xfffff
    800015ea:	f58080e7          	jalr	-168(ra) # 8000053e <panic>
      panic("uvmcopy: page not present");
    800015ee:	00007517          	auipc	a0,0x7
    800015f2:	bba50513          	addi	a0,a0,-1094 # 800081a8 <digits+0x168>
    800015f6:	fffff097          	auipc	ra,0xfffff
    800015fa:	f48080e7          	jalr	-184(ra) # 8000053e <panic>
      kfree(mem);
    800015fe:	854a                	mv	a0,s2
    80001600:	fffff097          	auipc	ra,0xfffff
    80001604:	3ea080e7          	jalr	1002(ra) # 800009ea <kfree>
    }
  }
  return 0;

 err:
  uvmunmap(new, 0, i / PGSIZE, 1);
    80001608:	4685                	li	a3,1
    8000160a:	00c9d613          	srli	a2,s3,0xc
    8000160e:	4581                	li	a1,0
    80001610:	8556                	mv	a0,s5
    80001612:	00000097          	auipc	ra,0x0
    80001616:	c52080e7          	jalr	-942(ra) # 80001264 <uvmunmap>
  return -1;
    8000161a:	557d                	li	a0,-1
}
    8000161c:	60a6                	ld	ra,72(sp)
    8000161e:	6406                	ld	s0,64(sp)
    80001620:	74e2                	ld	s1,56(sp)
    80001622:	7942                	ld	s2,48(sp)
    80001624:	79a2                	ld	s3,40(sp)
    80001626:	7a02                	ld	s4,32(sp)
    80001628:	6ae2                	ld	s5,24(sp)
    8000162a:	6b42                	ld	s6,16(sp)
    8000162c:	6ba2                	ld	s7,8(sp)
    8000162e:	6161                	addi	sp,sp,80
    80001630:	8082                	ret
  return 0;
    80001632:	4501                	li	a0,0
}
    80001634:	8082                	ret

0000000080001636 <uvmclear>:

// mark a PTE invalid for user access.
// used by exec for the user stack guard page.
void
uvmclear(pagetable_t pagetable, uint64 va)
{
    80001636:	1141                	addi	sp,sp,-16
    80001638:	e406                	sd	ra,8(sp)
    8000163a:	e022                	sd	s0,0(sp)
    8000163c:	0800                	addi	s0,sp,16
  pte_t *pte;
  
  pte = walk(pagetable, va, 0);
    8000163e:	4601                	li	a2,0
    80001640:	00000097          	auipc	ra,0x0
    80001644:	976080e7          	jalr	-1674(ra) # 80000fb6 <walk>
  if(pte == 0)
    80001648:	c901                	beqz	a0,80001658 <uvmclear+0x22>
    panic("uvmclear");
  *pte &= ~PTE_U;
    8000164a:	611c                	ld	a5,0(a0)
    8000164c:	9bbd                	andi	a5,a5,-17
    8000164e:	e11c                	sd	a5,0(a0)
}
    80001650:	60a2                	ld	ra,8(sp)
    80001652:	6402                	ld	s0,0(sp)
    80001654:	0141                	addi	sp,sp,16
    80001656:	8082                	ret
    panic("uvmclear");
    80001658:	00007517          	auipc	a0,0x7
    8000165c:	b7050513          	addi	a0,a0,-1168 # 800081c8 <digits+0x188>
    80001660:	fffff097          	auipc	ra,0xfffff
    80001664:	ede080e7          	jalr	-290(ra) # 8000053e <panic>

0000000080001668 <copyout>:
int
copyout(pagetable_t pagetable, uint64 dstva, char *src, uint64 len)
{
  uint64 n, va0, pa0;

  while(len > 0){
    80001668:	c6bd                	beqz	a3,800016d6 <copyout+0x6e>
{
    8000166a:	715d                	addi	sp,sp,-80
    8000166c:	e486                	sd	ra,72(sp)
    8000166e:	e0a2                	sd	s0,64(sp)
    80001670:	fc26                	sd	s1,56(sp)
    80001672:	f84a                	sd	s2,48(sp)
    80001674:	f44e                	sd	s3,40(sp)
    80001676:	f052                	sd	s4,32(sp)
    80001678:	ec56                	sd	s5,24(sp)
    8000167a:	e85a                	sd	s6,16(sp)
    8000167c:	e45e                	sd	s7,8(sp)
    8000167e:	e062                	sd	s8,0(sp)
    80001680:	0880                	addi	s0,sp,80
    80001682:	8b2a                	mv	s6,a0
    80001684:	8c2e                	mv	s8,a1
    80001686:	8a32                	mv	s4,a2
    80001688:	89b6                	mv	s3,a3
    va0 = PGROUNDDOWN(dstva);
    8000168a:	7bfd                	lui	s7,0xfffff
    pa0 = walkaddr(pagetable, va0);
    if(pa0 == 0)
      return -1;
    n = PGSIZE - (dstva - va0);
    8000168c:	6a85                	lui	s5,0x1
    8000168e:	a015                	j	800016b2 <copyout+0x4a>
    if(n > len)
      n = len;
    memmove((void *)(pa0 + (dstva - va0)), src, n);
    80001690:	9562                	add	a0,a0,s8
    80001692:	0004861b          	sext.w	a2,s1
    80001696:	85d2                	mv	a1,s4
    80001698:	41250533          	sub	a0,a0,s2
    8000169c:	fffff097          	auipc	ra,0xfffff
    800016a0:	692080e7          	jalr	1682(ra) # 80000d2e <memmove>

    len -= n;
    800016a4:	409989b3          	sub	s3,s3,s1
    src += n;
    800016a8:	9a26                	add	s4,s4,s1
    dstva = va0 + PGSIZE;
    800016aa:	01590c33          	add	s8,s2,s5
  while(len > 0){
    800016ae:	02098263          	beqz	s3,800016d2 <copyout+0x6a>
    va0 = PGROUNDDOWN(dstva);
    800016b2:	017c7933          	and	s2,s8,s7
    pa0 = walkaddr(pagetable, va0);
    800016b6:	85ca                	mv	a1,s2
    800016b8:	855a                	mv	a0,s6
    800016ba:	00000097          	auipc	ra,0x0
    800016be:	9a2080e7          	jalr	-1630(ra) # 8000105c <walkaddr>
    if(pa0 == 0)
    800016c2:	cd01                	beqz	a0,800016da <copyout+0x72>
    n = PGSIZE - (dstva - va0);
    800016c4:	418904b3          	sub	s1,s2,s8
    800016c8:	94d6                	add	s1,s1,s5
    if(n > len)
    800016ca:	fc99f3e3          	bgeu	s3,s1,80001690 <copyout+0x28>
    800016ce:	84ce                	mv	s1,s3
    800016d0:	b7c1                	j	80001690 <copyout+0x28>
  }
  return 0;
    800016d2:	4501                	li	a0,0
    800016d4:	a021                	j	800016dc <copyout+0x74>
    800016d6:	4501                	li	a0,0
}
    800016d8:	8082                	ret
      return -1;
    800016da:	557d                	li	a0,-1
}
    800016dc:	60a6                	ld	ra,72(sp)
    800016de:	6406                	ld	s0,64(sp)
    800016e0:	74e2                	ld	s1,56(sp)
    800016e2:	7942                	ld	s2,48(sp)
    800016e4:	79a2                	ld	s3,40(sp)
    800016e6:	7a02                	ld	s4,32(sp)
    800016e8:	6ae2                	ld	s5,24(sp)
    800016ea:	6b42                	ld	s6,16(sp)
    800016ec:	6ba2                	ld	s7,8(sp)
    800016ee:	6c02                	ld	s8,0(sp)
    800016f0:	6161                	addi	sp,sp,80
    800016f2:	8082                	ret

00000000800016f4 <copyin>:
int
copyin(pagetable_t pagetable, char *dst, uint64 srcva, uint64 len)
{
  uint64 n, va0, pa0;

  while(len > 0){
    800016f4:	caa5                	beqz	a3,80001764 <copyin+0x70>
{
    800016f6:	715d                	addi	sp,sp,-80
    800016f8:	e486                	sd	ra,72(sp)
    800016fa:	e0a2                	sd	s0,64(sp)
    800016fc:	fc26                	sd	s1,56(sp)
    800016fe:	f84a                	sd	s2,48(sp)
    80001700:	f44e                	sd	s3,40(sp)
    80001702:	f052                	sd	s4,32(sp)
    80001704:	ec56                	sd	s5,24(sp)
    80001706:	e85a                	sd	s6,16(sp)
    80001708:	e45e                	sd	s7,8(sp)
    8000170a:	e062                	sd	s8,0(sp)
    8000170c:	0880                	addi	s0,sp,80
    8000170e:	8b2a                	mv	s6,a0
    80001710:	8a2e                	mv	s4,a1
    80001712:	8c32                	mv	s8,a2
    80001714:	89b6                	mv	s3,a3
    va0 = PGROUNDDOWN(srcva);
    80001716:	7bfd                	lui	s7,0xfffff
    pa0 = walkaddr(pagetable, va0);
    if(pa0 == 0)
      return -1;
    n = PGSIZE - (srcva - va0);
    80001718:	6a85                	lui	s5,0x1
    8000171a:	a01d                	j	80001740 <copyin+0x4c>
    if(n > len)
      n = len;
    memmove(dst, (void *)(pa0 + (srcva - va0)), n);
    8000171c:	018505b3          	add	a1,a0,s8
    80001720:	0004861b          	sext.w	a2,s1
    80001724:	412585b3          	sub	a1,a1,s2
    80001728:	8552                	mv	a0,s4
    8000172a:	fffff097          	auipc	ra,0xfffff
    8000172e:	604080e7          	jalr	1540(ra) # 80000d2e <memmove>

    len -= n;
    80001732:	409989b3          	sub	s3,s3,s1
    dst += n;
    80001736:	9a26                	add	s4,s4,s1
    srcva = va0 + PGSIZE;
    80001738:	01590c33          	add	s8,s2,s5
  while(len > 0){
    8000173c:	02098263          	beqz	s3,80001760 <copyin+0x6c>
    va0 = PGROUNDDOWN(srcva);
    80001740:	017c7933          	and	s2,s8,s7
    pa0 = walkaddr(pagetable, va0);
    80001744:	85ca                	mv	a1,s2
    80001746:	855a                	mv	a0,s6
    80001748:	00000097          	auipc	ra,0x0
    8000174c:	914080e7          	jalr	-1772(ra) # 8000105c <walkaddr>
    if(pa0 == 0)
    80001750:	cd01                	beqz	a0,80001768 <copyin+0x74>
    n = PGSIZE - (srcva - va0);
    80001752:	418904b3          	sub	s1,s2,s8
    80001756:	94d6                	add	s1,s1,s5
    if(n > len)
    80001758:	fc99f2e3          	bgeu	s3,s1,8000171c <copyin+0x28>
    8000175c:	84ce                	mv	s1,s3
    8000175e:	bf7d                	j	8000171c <copyin+0x28>
  }
  return 0;
    80001760:	4501                	li	a0,0
    80001762:	a021                	j	8000176a <copyin+0x76>
    80001764:	4501                	li	a0,0
}
    80001766:	8082                	ret
      return -1;
    80001768:	557d                	li	a0,-1
}
    8000176a:	60a6                	ld	ra,72(sp)
    8000176c:	6406                	ld	s0,64(sp)
    8000176e:	74e2                	ld	s1,56(sp)
    80001770:	7942                	ld	s2,48(sp)
    80001772:	79a2                	ld	s3,40(sp)
    80001774:	7a02                	ld	s4,32(sp)
    80001776:	6ae2                	ld	s5,24(sp)
    80001778:	6b42                	ld	s6,16(sp)
    8000177a:	6ba2                	ld	s7,8(sp)
    8000177c:	6c02                	ld	s8,0(sp)
    8000177e:	6161                	addi	sp,sp,80
    80001780:	8082                	ret

0000000080001782 <copyinstr>:
copyinstr(pagetable_t pagetable, char *dst, uint64 srcva, uint64 max)
{
  uint64 n, va0, pa0;
  int got_null = 0;

  while(got_null == 0 && max > 0){
    80001782:	c6c5                	beqz	a3,8000182a <copyinstr+0xa8>
{
    80001784:	715d                	addi	sp,sp,-80
    80001786:	e486                	sd	ra,72(sp)
    80001788:	e0a2                	sd	s0,64(sp)
    8000178a:	fc26                	sd	s1,56(sp)
    8000178c:	f84a                	sd	s2,48(sp)
    8000178e:	f44e                	sd	s3,40(sp)
    80001790:	f052                	sd	s4,32(sp)
    80001792:	ec56                	sd	s5,24(sp)
    80001794:	e85a                	sd	s6,16(sp)
    80001796:	e45e                	sd	s7,8(sp)
    80001798:	0880                	addi	s0,sp,80
    8000179a:	8a2a                	mv	s4,a0
    8000179c:	8b2e                	mv	s6,a1
    8000179e:	8bb2                	mv	s7,a2
    800017a0:	84b6                	mv	s1,a3
    va0 = PGROUNDDOWN(srcva);
    800017a2:	7afd                	lui	s5,0xfffff
    pa0 = walkaddr(pagetable, va0);
    if(pa0 == 0)
      return -1;
    n = PGSIZE - (srcva - va0);
    800017a4:	6985                	lui	s3,0x1
    800017a6:	a035                	j	800017d2 <copyinstr+0x50>
      n = max;

    char *p = (char *) (pa0 + (srcva - va0));
    while(n > 0){
      if(*p == '\0'){
        *dst = '\0';
    800017a8:	00078023          	sb	zero,0(a5) # 1000 <_entry-0x7ffff000>
    800017ac:	4785                	li	a5,1
      dst++;
    }

    srcva = va0 + PGSIZE;
  }
  if(got_null){
    800017ae:	0017b793          	seqz	a5,a5
    800017b2:	40f00533          	neg	a0,a5
    return 0;
  } else {
    return -1;
  }
}
    800017b6:	60a6                	ld	ra,72(sp)
    800017b8:	6406                	ld	s0,64(sp)
    800017ba:	74e2                	ld	s1,56(sp)
    800017bc:	7942                	ld	s2,48(sp)
    800017be:	79a2                	ld	s3,40(sp)
    800017c0:	7a02                	ld	s4,32(sp)
    800017c2:	6ae2                	ld	s5,24(sp)
    800017c4:	6b42                	ld	s6,16(sp)
    800017c6:	6ba2                	ld	s7,8(sp)
    800017c8:	6161                	addi	sp,sp,80
    800017ca:	8082                	ret
    srcva = va0 + PGSIZE;
    800017cc:	01390bb3          	add	s7,s2,s3
  while(got_null == 0 && max > 0){
    800017d0:	c8a9                	beqz	s1,80001822 <copyinstr+0xa0>
    va0 = PGROUNDDOWN(srcva);
    800017d2:	015bf933          	and	s2,s7,s5
    pa0 = walkaddr(pagetable, va0);
    800017d6:	85ca                	mv	a1,s2
    800017d8:	8552                	mv	a0,s4
    800017da:	00000097          	auipc	ra,0x0
    800017de:	882080e7          	jalr	-1918(ra) # 8000105c <walkaddr>
    if(pa0 == 0)
    800017e2:	c131                	beqz	a0,80001826 <copyinstr+0xa4>
    n = PGSIZE - (srcva - va0);
    800017e4:	41790833          	sub	a6,s2,s7
    800017e8:	984e                	add	a6,a6,s3
    if(n > max)
    800017ea:	0104f363          	bgeu	s1,a6,800017f0 <copyinstr+0x6e>
    800017ee:	8826                	mv	a6,s1
    char *p = (char *) (pa0 + (srcva - va0));
    800017f0:	955e                	add	a0,a0,s7
    800017f2:	41250533          	sub	a0,a0,s2
    while(n > 0){
    800017f6:	fc080be3          	beqz	a6,800017cc <copyinstr+0x4a>
    800017fa:	985a                	add	a6,a6,s6
    800017fc:	87da                	mv	a5,s6
      if(*p == '\0'){
    800017fe:	41650633          	sub	a2,a0,s6
    80001802:	14fd                	addi	s1,s1,-1
    80001804:	9b26                	add	s6,s6,s1
    80001806:	00f60733          	add	a4,a2,a5
    8000180a:	00074703          	lbu	a4,0(a4)
    8000180e:	df49                	beqz	a4,800017a8 <copyinstr+0x26>
        *dst = *p;
    80001810:	00e78023          	sb	a4,0(a5)
      --max;
    80001814:	40fb04b3          	sub	s1,s6,a5
      dst++;
    80001818:	0785                	addi	a5,a5,1
    while(n > 0){
    8000181a:	ff0796e3          	bne	a5,a6,80001806 <copyinstr+0x84>
      dst++;
    8000181e:	8b42                	mv	s6,a6
    80001820:	b775                	j	800017cc <copyinstr+0x4a>
    80001822:	4781                	li	a5,0
    80001824:	b769                	j	800017ae <copyinstr+0x2c>
      return -1;
    80001826:	557d                	li	a0,-1
    80001828:	b779                	j	800017b6 <copyinstr+0x34>
  int got_null = 0;
    8000182a:	4781                	li	a5,0
  if(got_null){
    8000182c:	0017b793          	seqz	a5,a5
    80001830:	40f00533          	neg	a0,a5
}
    80001834:	8082                	ret

0000000080001836 <proc_mapstacks>:

// Allocate a page for each process's kernel stack.
// Map it high in memory, followed by an invalid
// guard page.
void proc_mapstacks(pagetable_t kpgtbl)
{
    80001836:	7139                	addi	sp,sp,-64
    80001838:	fc06                	sd	ra,56(sp)
    8000183a:	f822                	sd	s0,48(sp)
    8000183c:	f426                	sd	s1,40(sp)
    8000183e:	f04a                	sd	s2,32(sp)
    80001840:	ec4e                	sd	s3,24(sp)
    80001842:	e852                	sd	s4,16(sp)
    80001844:	e456                	sd	s5,8(sp)
    80001846:	e05a                	sd	s6,0(sp)
    80001848:	0080                	addi	s0,sp,64
    8000184a:	89aa                	mv	s3,a0
  struct proc *p;

  for (p = proc; p < &proc[NPROC]; p++)
    8000184c:	00013497          	auipc	s1,0x13
    80001850:	5d448493          	addi	s1,s1,1492 # 80014e20 <proc>
  {
    char *pa = kalloc();
    if (pa == 0)
      panic("kalloc");
    uint64 va = KSTACK((int)(p - proc));
    80001854:	8b26                	mv	s6,s1
    80001856:	00006a97          	auipc	s5,0x6
    8000185a:	7aaa8a93          	addi	s5,s5,1962 # 80008000 <etext>
    8000185e:	04000937          	lui	s2,0x4000
    80001862:	197d                	addi	s2,s2,-1
    80001864:	0932                	slli	s2,s2,0xc
  for (p = proc; p < &proc[NPROC]; p++)
    80001866:	0001aa17          	auipc	s4,0x1a
    8000186a:	1baa0a13          	addi	s4,s4,442 # 8001ba20 <tickslock>
    char *pa = kalloc();
    8000186e:	fffff097          	auipc	ra,0xfffff
    80001872:	278080e7          	jalr	632(ra) # 80000ae6 <kalloc>
    80001876:	862a                	mv	a2,a0
    if (pa == 0)
    80001878:	c131                	beqz	a0,800018bc <proc_mapstacks+0x86>
    uint64 va = KSTACK((int)(p - proc));
    8000187a:	416485b3          	sub	a1,s1,s6
    8000187e:	8591                	srai	a1,a1,0x4
    80001880:	000ab783          	ld	a5,0(s5)
    80001884:	02f585b3          	mul	a1,a1,a5
    80001888:	2585                	addiw	a1,a1,1
    8000188a:	00d5959b          	slliw	a1,a1,0xd
    kvmmap(kpgtbl, va, (uint64)pa, PGSIZE, PTE_R | PTE_W);
    8000188e:	4719                	li	a4,6
    80001890:	6685                	lui	a3,0x1
    80001892:	40b905b3          	sub	a1,s2,a1
    80001896:	854e                	mv	a0,s3
    80001898:	00000097          	auipc	ra,0x0
    8000189c:	8a6080e7          	jalr	-1882(ra) # 8000113e <kvmmap>
  for (p = proc; p < &proc[NPROC]; p++)
    800018a0:	1b048493          	addi	s1,s1,432
    800018a4:	fd4495e3          	bne	s1,s4,8000186e <proc_mapstacks+0x38>
  }
}
    800018a8:	70e2                	ld	ra,56(sp)
    800018aa:	7442                	ld	s0,48(sp)
    800018ac:	74a2                	ld	s1,40(sp)
    800018ae:	7902                	ld	s2,32(sp)
    800018b0:	69e2                	ld	s3,24(sp)
    800018b2:	6a42                	ld	s4,16(sp)
    800018b4:	6aa2                	ld	s5,8(sp)
    800018b6:	6b02                	ld	s6,0(sp)
    800018b8:	6121                	addi	sp,sp,64
    800018ba:	8082                	ret
      panic("kalloc");
    800018bc:	00007517          	auipc	a0,0x7
    800018c0:	91c50513          	addi	a0,a0,-1764 # 800081d8 <digits+0x198>
    800018c4:	fffff097          	auipc	ra,0xfffff
    800018c8:	c7a080e7          	jalr	-902(ra) # 8000053e <panic>

00000000800018cc <procinit>:

// initialize the proc table.
void procinit(void)
{
    800018cc:	7139                	addi	sp,sp,-64
    800018ce:	fc06                	sd	ra,56(sp)
    800018d0:	f822                	sd	s0,48(sp)
    800018d2:	f426                	sd	s1,40(sp)
    800018d4:	f04a                	sd	s2,32(sp)
    800018d6:	ec4e                	sd	s3,24(sp)
    800018d8:	e852                	sd	s4,16(sp)
    800018da:	e456                	sd	s5,8(sp)
    800018dc:	e05a                	sd	s6,0(sp)
    800018de:	0080                	addi	s0,sp,64
  struct proc *p;

  initlock(&pid_lock, "nextpid");
    800018e0:	00007597          	auipc	a1,0x7
    800018e4:	90058593          	addi	a1,a1,-1792 # 800081e0 <digits+0x1a0>
    800018e8:	0000f517          	auipc	a0,0xf
    800018ec:	28850513          	addi	a0,a0,648 # 80010b70 <pid_lock>
    800018f0:	fffff097          	auipc	ra,0xfffff
    800018f4:	256080e7          	jalr	598(ra) # 80000b46 <initlock>
  initlock(&wait_lock, "wait_lock");
    800018f8:	00007597          	auipc	a1,0x7
    800018fc:	8f058593          	addi	a1,a1,-1808 # 800081e8 <digits+0x1a8>
    80001900:	0000f517          	auipc	a0,0xf
    80001904:	28850513          	addi	a0,a0,648 # 80010b88 <wait_lock>
    80001908:	fffff097          	auipc	ra,0xfffff
    8000190c:	23e080e7          	jalr	574(ra) # 80000b46 <initlock>
  for (p = proc; p < &proc[NPROC]; p++)
    80001910:	00013497          	auipc	s1,0x13
    80001914:	51048493          	addi	s1,s1,1296 # 80014e20 <proc>
  {
    initlock(&p->lock, "proc");
    80001918:	00007b17          	auipc	s6,0x7
    8000191c:	8e0b0b13          	addi	s6,s6,-1824 # 800081f8 <digits+0x1b8>
    p->state = UNUSED;
    p->kstack = KSTACK((int)(p - proc));
    80001920:	8aa6                	mv	s5,s1
    80001922:	00006a17          	auipc	s4,0x6
    80001926:	6dea0a13          	addi	s4,s4,1758 # 80008000 <etext>
    8000192a:	04000937          	lui	s2,0x4000
    8000192e:	197d                	addi	s2,s2,-1
    80001930:	0932                	slli	s2,s2,0xc
  for (p = proc; p < &proc[NPROC]; p++)
    80001932:	0001a997          	auipc	s3,0x1a
    80001936:	0ee98993          	addi	s3,s3,238 # 8001ba20 <tickslock>
    initlock(&p->lock, "proc");
    8000193a:	85da                	mv	a1,s6
    8000193c:	8526                	mv	a0,s1
    8000193e:	fffff097          	auipc	ra,0xfffff
    80001942:	208080e7          	jalr	520(ra) # 80000b46 <initlock>
    p->state = UNUSED;
    80001946:	0004ac23          	sw	zero,24(s1)
    p->kstack = KSTACK((int)(p - proc));
    8000194a:	415487b3          	sub	a5,s1,s5
    8000194e:	8791                	srai	a5,a5,0x4
    80001950:	000a3703          	ld	a4,0(s4)
    80001954:	02e787b3          	mul	a5,a5,a4
    80001958:	2785                	addiw	a5,a5,1
    8000195a:	00d7979b          	slliw	a5,a5,0xd
    8000195e:	40f907b3          	sub	a5,s2,a5
    80001962:	e0bc                	sd	a5,64(s1)
  for (p = proc; p < &proc[NPROC]; p++)
    80001964:	1b048493          	addi	s1,s1,432
    80001968:	fd3499e3          	bne	s1,s3,8000193a <procinit+0x6e>
  }
}
    8000196c:	70e2                	ld	ra,56(sp)
    8000196e:	7442                	ld	s0,48(sp)
    80001970:	74a2                	ld	s1,40(sp)
    80001972:	7902                	ld	s2,32(sp)
    80001974:	69e2                	ld	s3,24(sp)
    80001976:	6a42                	ld	s4,16(sp)
    80001978:	6aa2                	ld	s5,8(sp)
    8000197a:	6b02                	ld	s6,0(sp)
    8000197c:	6121                	addi	sp,sp,64
    8000197e:	8082                	ret

0000000080001980 <cpuid>:

// Must be called with interrupts disabled,
// to prevent race with process being moved
// to a different CPU.
int cpuid()
{
    80001980:	1141                	addi	sp,sp,-16
    80001982:	e422                	sd	s0,8(sp)
    80001984:	0800                	addi	s0,sp,16
  asm volatile("mv %0, tp" : "=r" (x) );
    80001986:	8512                	mv	a0,tp
  int id = r_tp();
  return id;
}
    80001988:	2501                	sext.w	a0,a0
    8000198a:	6422                	ld	s0,8(sp)
    8000198c:	0141                	addi	sp,sp,16
    8000198e:	8082                	ret

0000000080001990 <mycpu>:

// Return this CPU's cpu struct.
// Interrupts must be disabled.
struct cpu *
mycpu(void)
{
    80001990:	1141                	addi	sp,sp,-16
    80001992:	e422                	sd	s0,8(sp)
    80001994:	0800                	addi	s0,sp,16
    80001996:	8792                	mv	a5,tp
  int id = cpuid();
  struct cpu *c = &cpus[id];
    80001998:	2781                	sext.w	a5,a5
    8000199a:	079e                	slli	a5,a5,0x7
  return c;
}
    8000199c:	0000f517          	auipc	a0,0xf
    800019a0:	20450513          	addi	a0,a0,516 # 80010ba0 <cpus>
    800019a4:	953e                	add	a0,a0,a5
    800019a6:	6422                	ld	s0,8(sp)
    800019a8:	0141                	addi	sp,sp,16
    800019aa:	8082                	ret

00000000800019ac <myproc>:

// Return the current struct proc *, or zero if none.
struct proc *
myproc(void)
{
    800019ac:	1101                	addi	sp,sp,-32
    800019ae:	ec06                	sd	ra,24(sp)
    800019b0:	e822                	sd	s0,16(sp)
    800019b2:	e426                	sd	s1,8(sp)
    800019b4:	1000                	addi	s0,sp,32
  push_off();
    800019b6:	fffff097          	auipc	ra,0xfffff
    800019ba:	1d4080e7          	jalr	468(ra) # 80000b8a <push_off>
    800019be:	8792                	mv	a5,tp
  struct cpu *c = mycpu();
  struct proc *p = c->proc;
    800019c0:	2781                	sext.w	a5,a5
    800019c2:	079e                	slli	a5,a5,0x7
    800019c4:	0000f717          	auipc	a4,0xf
    800019c8:	1ac70713          	addi	a4,a4,428 # 80010b70 <pid_lock>
    800019cc:	97ba                	add	a5,a5,a4
    800019ce:	7b84                	ld	s1,48(a5)
  pop_off();
    800019d0:	fffff097          	auipc	ra,0xfffff
    800019d4:	25a080e7          	jalr	602(ra) # 80000c2a <pop_off>
  return p;
}
    800019d8:	8526                	mv	a0,s1
    800019da:	60e2                	ld	ra,24(sp)
    800019dc:	6442                	ld	s0,16(sp)
    800019de:	64a2                	ld	s1,8(sp)
    800019e0:	6105                	addi	sp,sp,32
    800019e2:	8082                	ret

00000000800019e4 <forkret>:
}

// A fork child's very first scheduling by scheduler()
// will swtch to forkret.
void forkret(void)
{
    800019e4:	1141                	addi	sp,sp,-16
    800019e6:	e406                	sd	ra,8(sp)
    800019e8:	e022                	sd	s0,0(sp)
    800019ea:	0800                	addi	s0,sp,16
  static int first = 1;

  // Still holding p->lock from scheduler.
  release(&myproc()->lock);
    800019ec:	00000097          	auipc	ra,0x0
    800019f0:	fc0080e7          	jalr	-64(ra) # 800019ac <myproc>
    800019f4:	fffff097          	auipc	ra,0xfffff
    800019f8:	296080e7          	jalr	662(ra) # 80000c8a <release>

  if (first)
    800019fc:	00007797          	auipc	a5,0x7
    80001a00:	e647a783          	lw	a5,-412(a5) # 80008860 <first.1>
    80001a04:	eb89                	bnez	a5,80001a16 <forkret+0x32>
    // be run from main().
    first = 0;
    fsinit(ROOTDEV);
  }

  usertrapret();
    80001a06:	00001097          	auipc	ra,0x1
    80001a0a:	e88080e7          	jalr	-376(ra) # 8000288e <usertrapret>
}
    80001a0e:	60a2                	ld	ra,8(sp)
    80001a10:	6402                	ld	s0,0(sp)
    80001a12:	0141                	addi	sp,sp,16
    80001a14:	8082                	ret
    first = 0;
    80001a16:	00007797          	auipc	a5,0x7
    80001a1a:	e407a523          	sw	zero,-438(a5) # 80008860 <first.1>
    fsinit(ROOTDEV);
    80001a1e:	4505                	li	a0,1
    80001a20:	00002097          	auipc	ra,0x2
    80001a24:	cfa080e7          	jalr	-774(ra) # 8000371a <fsinit>
    80001a28:	bff9                	j	80001a06 <forkret+0x22>

0000000080001a2a <allocpid>:
{
    80001a2a:	1101                	addi	sp,sp,-32
    80001a2c:	ec06                	sd	ra,24(sp)
    80001a2e:	e822                	sd	s0,16(sp)
    80001a30:	e426                	sd	s1,8(sp)
    80001a32:	e04a                	sd	s2,0(sp)
    80001a34:	1000                	addi	s0,sp,32
  acquire(&pid_lock);
    80001a36:	0000f917          	auipc	s2,0xf
    80001a3a:	13a90913          	addi	s2,s2,314 # 80010b70 <pid_lock>
    80001a3e:	854a                	mv	a0,s2
    80001a40:	fffff097          	auipc	ra,0xfffff
    80001a44:	196080e7          	jalr	406(ra) # 80000bd6 <acquire>
  pid = nextpid;
    80001a48:	00007797          	auipc	a5,0x7
    80001a4c:	e1c78793          	addi	a5,a5,-484 # 80008864 <nextpid>
    80001a50:	4384                	lw	s1,0(a5)
  nextpid = nextpid + 1;
    80001a52:	0014871b          	addiw	a4,s1,1
    80001a56:	c398                	sw	a4,0(a5)
  release(&pid_lock);
    80001a58:	854a                	mv	a0,s2
    80001a5a:	fffff097          	auipc	ra,0xfffff
    80001a5e:	230080e7          	jalr	560(ra) # 80000c8a <release>
}
    80001a62:	8526                	mv	a0,s1
    80001a64:	60e2                	ld	ra,24(sp)
    80001a66:	6442                	ld	s0,16(sp)
    80001a68:	64a2                	ld	s1,8(sp)
    80001a6a:	6902                	ld	s2,0(sp)
    80001a6c:	6105                	addi	sp,sp,32
    80001a6e:	8082                	ret

0000000080001a70 <proc_pagetable>:
{
    80001a70:	1101                	addi	sp,sp,-32
    80001a72:	ec06                	sd	ra,24(sp)
    80001a74:	e822                	sd	s0,16(sp)
    80001a76:	e426                	sd	s1,8(sp)
    80001a78:	e04a                	sd	s2,0(sp)
    80001a7a:	1000                	addi	s0,sp,32
    80001a7c:	892a                	mv	s2,a0
  pagetable = uvmcreate();
    80001a7e:	00000097          	auipc	ra,0x0
    80001a82:	8aa080e7          	jalr	-1878(ra) # 80001328 <uvmcreate>
    80001a86:	84aa                	mv	s1,a0
  if (pagetable == 0)
    80001a88:	c121                	beqz	a0,80001ac8 <proc_pagetable+0x58>
  if (mappages(pagetable, TRAMPOLINE, PGSIZE,
    80001a8a:	4729                	li	a4,10
    80001a8c:	00005697          	auipc	a3,0x5
    80001a90:	57468693          	addi	a3,a3,1396 # 80007000 <_trampoline>
    80001a94:	6605                	lui	a2,0x1
    80001a96:	040005b7          	lui	a1,0x4000
    80001a9a:	15fd                	addi	a1,a1,-1
    80001a9c:	05b2                	slli	a1,a1,0xc
    80001a9e:	fffff097          	auipc	ra,0xfffff
    80001aa2:	600080e7          	jalr	1536(ra) # 8000109e <mappages>
    80001aa6:	02054863          	bltz	a0,80001ad6 <proc_pagetable+0x66>
  if (mappages(pagetable, TRAPFRAME, PGSIZE,
    80001aaa:	4719                	li	a4,6
    80001aac:	05893683          	ld	a3,88(s2)
    80001ab0:	6605                	lui	a2,0x1
    80001ab2:	020005b7          	lui	a1,0x2000
    80001ab6:	15fd                	addi	a1,a1,-1
    80001ab8:	05b6                	slli	a1,a1,0xd
    80001aba:	8526                	mv	a0,s1
    80001abc:	fffff097          	auipc	ra,0xfffff
    80001ac0:	5e2080e7          	jalr	1506(ra) # 8000109e <mappages>
    80001ac4:	02054163          	bltz	a0,80001ae6 <proc_pagetable+0x76>
}
    80001ac8:	8526                	mv	a0,s1
    80001aca:	60e2                	ld	ra,24(sp)
    80001acc:	6442                	ld	s0,16(sp)
    80001ace:	64a2                	ld	s1,8(sp)
    80001ad0:	6902                	ld	s2,0(sp)
    80001ad2:	6105                	addi	sp,sp,32
    80001ad4:	8082                	ret
    uvmfree(pagetable, 0);
    80001ad6:	4581                	li	a1,0
    80001ad8:	8526                	mv	a0,s1
    80001ada:	00000097          	auipc	ra,0x0
    80001ade:	a52080e7          	jalr	-1454(ra) # 8000152c <uvmfree>
    return 0;
    80001ae2:	4481                	li	s1,0
    80001ae4:	b7d5                	j	80001ac8 <proc_pagetable+0x58>
    uvmunmap(pagetable, TRAMPOLINE, 1, 0);
    80001ae6:	4681                	li	a3,0
    80001ae8:	4605                	li	a2,1
    80001aea:	040005b7          	lui	a1,0x4000
    80001aee:	15fd                	addi	a1,a1,-1
    80001af0:	05b2                	slli	a1,a1,0xc
    80001af2:	8526                	mv	a0,s1
    80001af4:	fffff097          	auipc	ra,0xfffff
    80001af8:	770080e7          	jalr	1904(ra) # 80001264 <uvmunmap>
    uvmfree(pagetable, 0);
    80001afc:	4581                	li	a1,0
    80001afe:	8526                	mv	a0,s1
    80001b00:	00000097          	auipc	ra,0x0
    80001b04:	a2c080e7          	jalr	-1492(ra) # 8000152c <uvmfree>
    return 0;
    80001b08:	4481                	li	s1,0
    80001b0a:	bf7d                	j	80001ac8 <proc_pagetable+0x58>

0000000080001b0c <proc_freepagetable>:
{
    80001b0c:	1101                	addi	sp,sp,-32
    80001b0e:	ec06                	sd	ra,24(sp)
    80001b10:	e822                	sd	s0,16(sp)
    80001b12:	e426                	sd	s1,8(sp)
    80001b14:	e04a                	sd	s2,0(sp)
    80001b16:	1000                	addi	s0,sp,32
    80001b18:	84aa                	mv	s1,a0
    80001b1a:	892e                	mv	s2,a1
  uvmunmap(pagetable, TRAMPOLINE, 1, 0);
    80001b1c:	4681                	li	a3,0
    80001b1e:	4605                	li	a2,1
    80001b20:	040005b7          	lui	a1,0x4000
    80001b24:	15fd                	addi	a1,a1,-1
    80001b26:	05b2                	slli	a1,a1,0xc
    80001b28:	fffff097          	auipc	ra,0xfffff
    80001b2c:	73c080e7          	jalr	1852(ra) # 80001264 <uvmunmap>
  uvmunmap(pagetable, TRAPFRAME, 1, 0);
    80001b30:	4681                	li	a3,0
    80001b32:	4605                	li	a2,1
    80001b34:	020005b7          	lui	a1,0x2000
    80001b38:	15fd                	addi	a1,a1,-1
    80001b3a:	05b6                	slli	a1,a1,0xd
    80001b3c:	8526                	mv	a0,s1
    80001b3e:	fffff097          	auipc	ra,0xfffff
    80001b42:	726080e7          	jalr	1830(ra) # 80001264 <uvmunmap>
  uvmfree(pagetable, sz);
    80001b46:	85ca                	mv	a1,s2
    80001b48:	8526                	mv	a0,s1
    80001b4a:	00000097          	auipc	ra,0x0
    80001b4e:	9e2080e7          	jalr	-1566(ra) # 8000152c <uvmfree>
}
    80001b52:	60e2                	ld	ra,24(sp)
    80001b54:	6442                	ld	s0,16(sp)
    80001b56:	64a2                	ld	s1,8(sp)
    80001b58:	6902                	ld	s2,0(sp)
    80001b5a:	6105                	addi	sp,sp,32
    80001b5c:	8082                	ret

0000000080001b5e <freeproc>:
{
    80001b5e:	1101                	addi	sp,sp,-32
    80001b60:	ec06                	sd	ra,24(sp)
    80001b62:	e822                	sd	s0,16(sp)
    80001b64:	e426                	sd	s1,8(sp)
    80001b66:	1000                	addi	s0,sp,32
    80001b68:	84aa                	mv	s1,a0
  if (p->trapframe)
    80001b6a:	6d28                	ld	a0,88(a0)
    80001b6c:	c509                	beqz	a0,80001b76 <freeproc+0x18>
    kfree((void *)p->trapframe);
    80001b6e:	fffff097          	auipc	ra,0xfffff
    80001b72:	e7c080e7          	jalr	-388(ra) # 800009ea <kfree>
  p->trapframe = 0;
    80001b76:	0404bc23          	sd	zero,88(s1)
  if (p->pagetable)
    80001b7a:	68a8                	ld	a0,80(s1)
    80001b7c:	c511                	beqz	a0,80001b88 <freeproc+0x2a>
    proc_freepagetable(p->pagetable, p->sz);
    80001b7e:	64ac                	ld	a1,72(s1)
    80001b80:	00000097          	auipc	ra,0x0
    80001b84:	f8c080e7          	jalr	-116(ra) # 80001b0c <proc_freepagetable>
  p->pagetable = 0;
    80001b88:	0404b823          	sd	zero,80(s1)
  p->sz = 0;
    80001b8c:	0404b423          	sd	zero,72(s1)
  p->pid = 0;
    80001b90:	0204a823          	sw	zero,48(s1)
  p->parent = 0;
    80001b94:	0204bc23          	sd	zero,56(s1)
  p->name[0] = 0;
    80001b98:	14048c23          	sb	zero,344(s1)
  p->chan = 0;
    80001b9c:	0204b023          	sd	zero,32(s1)
  p->killed = 0;
    80001ba0:	0204a423          	sw	zero,40(s1)
  p->xstate = 0;
    80001ba4:	0204a623          	sw	zero,44(s1)
  p->state = UNUSED;
    80001ba8:	0004ac23          	sw	zero,24(s1)
}
    80001bac:	60e2                	ld	ra,24(sp)
    80001bae:	6442                	ld	s0,16(sp)
    80001bb0:	64a2                	ld	s1,8(sp)
    80001bb2:	6105                	addi	sp,sp,32
    80001bb4:	8082                	ret

0000000080001bb6 <allocproc>:
{
    80001bb6:	1101                	addi	sp,sp,-32
    80001bb8:	ec06                	sd	ra,24(sp)
    80001bba:	e822                	sd	s0,16(sp)
    80001bbc:	e426                	sd	s1,8(sp)
    80001bbe:	e04a                	sd	s2,0(sp)
    80001bc0:	1000                	addi	s0,sp,32
  for (p = proc; p < &proc[NPROC]; p++)
    80001bc2:	00013497          	auipc	s1,0x13
    80001bc6:	25e48493          	addi	s1,s1,606 # 80014e20 <proc>
    80001bca:	0001a917          	auipc	s2,0x1a
    80001bce:	e5690913          	addi	s2,s2,-426 # 8001ba20 <tickslock>
    acquire(&p->lock);
    80001bd2:	8526                	mv	a0,s1
    80001bd4:	fffff097          	auipc	ra,0xfffff
    80001bd8:	002080e7          	jalr	2(ra) # 80000bd6 <acquire>
    if (p->state == UNUSED)
    80001bdc:	4c9c                	lw	a5,24(s1)
    80001bde:	cf81                	beqz	a5,80001bf6 <allocproc+0x40>
      release(&p->lock);
    80001be0:	8526                	mv	a0,s1
    80001be2:	fffff097          	auipc	ra,0xfffff
    80001be6:	0a8080e7          	jalr	168(ra) # 80000c8a <release>
  for (p = proc; p < &proc[NPROC]; p++)
    80001bea:	1b048493          	addi	s1,s1,432
    80001bee:	ff2492e3          	bne	s1,s2,80001bd2 <allocproc+0x1c>
  return 0;
    80001bf2:	4481                	li	s1,0
    80001bf4:	a051                	j	80001c78 <allocproc+0xc2>
  p->pid = allocpid();
    80001bf6:	00000097          	auipc	ra,0x0
    80001bfa:	e34080e7          	jalr	-460(ra) # 80001a2a <allocpid>
    80001bfe:	d888                	sw	a0,48(s1)
  p->state = USED;
    80001c00:	4785                	li	a5,1
    80001c02:	cc9c                	sw	a5,24(s1)
  if ((p->trapframe = (struct trapframe *)kalloc()) == 0)
    80001c04:	fffff097          	auipc	ra,0xfffff
    80001c08:	ee2080e7          	jalr	-286(ra) # 80000ae6 <kalloc>
    80001c0c:	892a                	mv	s2,a0
    80001c0e:	eca8                	sd	a0,88(s1)
    80001c10:	c93d                	beqz	a0,80001c86 <allocproc+0xd0>
  p->pagetable = proc_pagetable(p);
    80001c12:	8526                	mv	a0,s1
    80001c14:	00000097          	auipc	ra,0x0
    80001c18:	e5c080e7          	jalr	-420(ra) # 80001a70 <proc_pagetable>
    80001c1c:	892a                	mv	s2,a0
    80001c1e:	e8a8                	sd	a0,80(s1)
  if (p->pagetable == 0)
    80001c20:	cd3d                	beqz	a0,80001c9e <allocproc+0xe8>
  memset(&p->context, 0, sizeof(p->context));
    80001c22:	07000613          	li	a2,112
    80001c26:	4581                	li	a1,0
    80001c28:	06048513          	addi	a0,s1,96
    80001c2c:	fffff097          	auipc	ra,0xfffff
    80001c30:	0a6080e7          	jalr	166(ra) # 80000cd2 <memset>
  p->context.ra = (uint64)forkret;
    80001c34:	00000797          	auipc	a5,0x0
    80001c38:	db078793          	addi	a5,a5,-592 # 800019e4 <forkret>
    80001c3c:	f0bc                	sd	a5,96(s1)
  p->context.sp = p->kstack + PGSIZE;
    80001c3e:	60bc                	ld	a5,64(s1)
    80001c40:	6705                	lui	a4,0x1
    80001c42:	97ba                	add	a5,a5,a4
    80001c44:	f4bc                	sd	a5,104(s1)
  p->rtime = 0;
    80001c46:	1604a423          	sw	zero,360(s1)
  p->etime = 0;
    80001c4a:	1604a823          	sw	zero,368(s1)
  p->ctime = ticks;
    80001c4e:	00007797          	auipc	a5,0x7
    80001c52:	cae7a783          	lw	a5,-850(a5) # 800088fc <ticks>
    80001c56:	16f4a623          	sw	a5,364(s1)
  p->readcount = 0;
    80001c5a:	1604aa23          	sw	zero,372(s1)
  p->arrival = ticks;
    80001c5e:	2781                	sext.w	a5,a5
    80001c60:	18f4aa23          	sw	a5,404(s1)
  p->numticks = 0;
    80001c64:	1804ac23          	sw	zero,408(s1)
  p->priority=0;
    80001c68:	1804ae23          	sw	zero,412(s1)
  p->boost=0;
    80001c6c:	1a04a023          	sw	zero,416(s1)
  p->enter=ticks;
    80001c70:	1af4a223          	sw	a5,420(s1)
  p->numticks5=0;
    80001c74:	1a04a423          	sw	zero,424(s1)
}
    80001c78:	8526                	mv	a0,s1
    80001c7a:	60e2                	ld	ra,24(sp)
    80001c7c:	6442                	ld	s0,16(sp)
    80001c7e:	64a2                	ld	s1,8(sp)
    80001c80:	6902                	ld	s2,0(sp)
    80001c82:	6105                	addi	sp,sp,32
    80001c84:	8082                	ret
    freeproc(p);
    80001c86:	8526                	mv	a0,s1
    80001c88:	00000097          	auipc	ra,0x0
    80001c8c:	ed6080e7          	jalr	-298(ra) # 80001b5e <freeproc>
    release(&p->lock);
    80001c90:	8526                	mv	a0,s1
    80001c92:	fffff097          	auipc	ra,0xfffff
    80001c96:	ff8080e7          	jalr	-8(ra) # 80000c8a <release>
    return 0;
    80001c9a:	84ca                	mv	s1,s2
    80001c9c:	bff1                	j	80001c78 <allocproc+0xc2>
    freeproc(p);
    80001c9e:	8526                	mv	a0,s1
    80001ca0:	00000097          	auipc	ra,0x0
    80001ca4:	ebe080e7          	jalr	-322(ra) # 80001b5e <freeproc>
    release(&p->lock);
    80001ca8:	8526                	mv	a0,s1
    80001caa:	fffff097          	auipc	ra,0xfffff
    80001cae:	fe0080e7          	jalr	-32(ra) # 80000c8a <release>
    return 0;
    80001cb2:	84ca                	mv	s1,s2
    80001cb4:	b7d1                	j	80001c78 <allocproc+0xc2>

0000000080001cb6 <userinit>:
{
    80001cb6:	1101                	addi	sp,sp,-32
    80001cb8:	ec06                	sd	ra,24(sp)
    80001cba:	e822                	sd	s0,16(sp)
    80001cbc:	e426                	sd	s1,8(sp)
    80001cbe:	1000                	addi	s0,sp,32
  p = allocproc();
    80001cc0:	00000097          	auipc	ra,0x0
    80001cc4:	ef6080e7          	jalr	-266(ra) # 80001bb6 <allocproc>
    80001cc8:	84aa                	mv	s1,a0
  initproc = p;
    80001cca:	00007797          	auipc	a5,0x7
    80001cce:	c0a7bf23          	sd	a0,-994(a5) # 800088e8 <initproc>
  uvmfirst(p->pagetable, initcode, sizeof(initcode));
    80001cd2:	03400613          	li	a2,52
    80001cd6:	00007597          	auipc	a1,0x7
    80001cda:	b9a58593          	addi	a1,a1,-1126 # 80008870 <initcode>
    80001cde:	6928                	ld	a0,80(a0)
    80001ce0:	fffff097          	auipc	ra,0xfffff
    80001ce4:	676080e7          	jalr	1654(ra) # 80001356 <uvmfirst>
  p->sz = PGSIZE;
    80001ce8:	6785                	lui	a5,0x1
    80001cea:	e4bc                	sd	a5,72(s1)
  p->trapframe->epc = 0;     // user program counter
    80001cec:	6cb8                	ld	a4,88(s1)
    80001cee:	00073c23          	sd	zero,24(a4) # 1018 <_entry-0x7fffefe8>
  p->trapframe->sp = PGSIZE; // user stack pointer
    80001cf2:	6cb8                	ld	a4,88(s1)
    80001cf4:	fb1c                	sd	a5,48(a4)
  safestrcpy(p->name, "initcode", sizeof(p->name));
    80001cf6:	4641                	li	a2,16
    80001cf8:	00006597          	auipc	a1,0x6
    80001cfc:	50858593          	addi	a1,a1,1288 # 80008200 <digits+0x1c0>
    80001d00:	15848513          	addi	a0,s1,344
    80001d04:	fffff097          	auipc	ra,0xfffff
    80001d08:	118080e7          	jalr	280(ra) # 80000e1c <safestrcpy>
  p->cwd = namei("/");
    80001d0c:	00006517          	auipc	a0,0x6
    80001d10:	50450513          	addi	a0,a0,1284 # 80008210 <digits+0x1d0>
    80001d14:	00002097          	auipc	ra,0x2
    80001d18:	428080e7          	jalr	1064(ra) # 8000413c <namei>
    80001d1c:	14a4b823          	sd	a0,336(s1)
  p->state = RUNNABLE;
    80001d20:	478d                	li	a5,3
    80001d22:	cc9c                	sw	a5,24(s1)
  release(&p->lock);
    80001d24:	8526                	mv	a0,s1
    80001d26:	fffff097          	auipc	ra,0xfffff
    80001d2a:	f64080e7          	jalr	-156(ra) # 80000c8a <release>
}
    80001d2e:	60e2                	ld	ra,24(sp)
    80001d30:	6442                	ld	s0,16(sp)
    80001d32:	64a2                	ld	s1,8(sp)
    80001d34:	6105                	addi	sp,sp,32
    80001d36:	8082                	ret

0000000080001d38 <growproc>:
{
    80001d38:	1101                	addi	sp,sp,-32
    80001d3a:	ec06                	sd	ra,24(sp)
    80001d3c:	e822                	sd	s0,16(sp)
    80001d3e:	e426                	sd	s1,8(sp)
    80001d40:	e04a                	sd	s2,0(sp)
    80001d42:	1000                	addi	s0,sp,32
    80001d44:	892a                	mv	s2,a0
  struct proc *p = myproc();
    80001d46:	00000097          	auipc	ra,0x0
    80001d4a:	c66080e7          	jalr	-922(ra) # 800019ac <myproc>
    80001d4e:	84aa                	mv	s1,a0
  sz = p->sz;
    80001d50:	652c                	ld	a1,72(a0)
  if (n > 0)
    80001d52:	01204c63          	bgtz	s2,80001d6a <growproc+0x32>
  else if (n < 0)
    80001d56:	02094663          	bltz	s2,80001d82 <growproc+0x4a>
  p->sz = sz;
    80001d5a:	e4ac                	sd	a1,72(s1)
  return 0;
    80001d5c:	4501                	li	a0,0
}
    80001d5e:	60e2                	ld	ra,24(sp)
    80001d60:	6442                	ld	s0,16(sp)
    80001d62:	64a2                	ld	s1,8(sp)
    80001d64:	6902                	ld	s2,0(sp)
    80001d66:	6105                	addi	sp,sp,32
    80001d68:	8082                	ret
    if ((sz = uvmalloc(p->pagetable, sz, sz + n, PTE_W)) == 0)
    80001d6a:	4691                	li	a3,4
    80001d6c:	00b90633          	add	a2,s2,a1
    80001d70:	6928                	ld	a0,80(a0)
    80001d72:	fffff097          	auipc	ra,0xfffff
    80001d76:	69e080e7          	jalr	1694(ra) # 80001410 <uvmalloc>
    80001d7a:	85aa                	mv	a1,a0
    80001d7c:	fd79                	bnez	a0,80001d5a <growproc+0x22>
      return -1;
    80001d7e:	557d                	li	a0,-1
    80001d80:	bff9                	j	80001d5e <growproc+0x26>
    sz = uvmdealloc(p->pagetable, sz, sz + n);
    80001d82:	00b90633          	add	a2,s2,a1
    80001d86:	6928                	ld	a0,80(a0)
    80001d88:	fffff097          	auipc	ra,0xfffff
    80001d8c:	640080e7          	jalr	1600(ra) # 800013c8 <uvmdealloc>
    80001d90:	85aa                	mv	a1,a0
    80001d92:	b7e1                	j	80001d5a <growproc+0x22>

0000000080001d94 <fork>:
{
    80001d94:	7139                	addi	sp,sp,-64
    80001d96:	fc06                	sd	ra,56(sp)
    80001d98:	f822                	sd	s0,48(sp)
    80001d9a:	f426                	sd	s1,40(sp)
    80001d9c:	f04a                	sd	s2,32(sp)
    80001d9e:	ec4e                	sd	s3,24(sp)
    80001da0:	e852                	sd	s4,16(sp)
    80001da2:	e456                	sd	s5,8(sp)
    80001da4:	0080                	addi	s0,sp,64
  struct proc *p = myproc();
    80001da6:	00000097          	auipc	ra,0x0
    80001daa:	c06080e7          	jalr	-1018(ra) # 800019ac <myproc>
    80001dae:	8aaa                	mv	s5,a0
  if ((np = allocproc()) == 0)
    80001db0:	00000097          	auipc	ra,0x0
    80001db4:	e06080e7          	jalr	-506(ra) # 80001bb6 <allocproc>
    80001db8:	10050c63          	beqz	a0,80001ed0 <fork+0x13c>
    80001dbc:	8a2a                	mv	s4,a0
  if (uvmcopy(p->pagetable, np->pagetable, p->sz) < 0)
    80001dbe:	048ab603          	ld	a2,72(s5)
    80001dc2:	692c                	ld	a1,80(a0)
    80001dc4:	050ab503          	ld	a0,80(s5)
    80001dc8:	fffff097          	auipc	ra,0xfffff
    80001dcc:	79c080e7          	jalr	1948(ra) # 80001564 <uvmcopy>
    80001dd0:	04054863          	bltz	a0,80001e20 <fork+0x8c>
  np->sz = p->sz;
    80001dd4:	048ab783          	ld	a5,72(s5)
    80001dd8:	04fa3423          	sd	a5,72(s4)
  *(np->trapframe) = *(p->trapframe);
    80001ddc:	058ab683          	ld	a3,88(s5)
    80001de0:	87b6                	mv	a5,a3
    80001de2:	058a3703          	ld	a4,88(s4)
    80001de6:	12068693          	addi	a3,a3,288
    80001dea:	0007b803          	ld	a6,0(a5) # 1000 <_entry-0x7ffff000>
    80001dee:	6788                	ld	a0,8(a5)
    80001df0:	6b8c                	ld	a1,16(a5)
    80001df2:	6f90                	ld	a2,24(a5)
    80001df4:	01073023          	sd	a6,0(a4)
    80001df8:	e708                	sd	a0,8(a4)
    80001dfa:	eb0c                	sd	a1,16(a4)
    80001dfc:	ef10                	sd	a2,24(a4)
    80001dfe:	02078793          	addi	a5,a5,32
    80001e02:	02070713          	addi	a4,a4,32
    80001e06:	fed792e3          	bne	a5,a3,80001dea <fork+0x56>
  np->trapframe->a0 = 0;
    80001e0a:	058a3783          	ld	a5,88(s4)
    80001e0e:	0607b823          	sd	zero,112(a5)
  for (i = 0; i < NOFILE; i++)
    80001e12:	0d0a8493          	addi	s1,s5,208
    80001e16:	0d0a0913          	addi	s2,s4,208
    80001e1a:	150a8993          	addi	s3,s5,336
    80001e1e:	a00d                	j	80001e40 <fork+0xac>
    freeproc(np);
    80001e20:	8552                	mv	a0,s4
    80001e22:	00000097          	auipc	ra,0x0
    80001e26:	d3c080e7          	jalr	-708(ra) # 80001b5e <freeproc>
    release(&np->lock);
    80001e2a:	8552                	mv	a0,s4
    80001e2c:	fffff097          	auipc	ra,0xfffff
    80001e30:	e5e080e7          	jalr	-418(ra) # 80000c8a <release>
    return -1;
    80001e34:	597d                	li	s2,-1
    80001e36:	a059                	j	80001ebc <fork+0x128>
  for (i = 0; i < NOFILE; i++)
    80001e38:	04a1                	addi	s1,s1,8
    80001e3a:	0921                	addi	s2,s2,8
    80001e3c:	01348b63          	beq	s1,s3,80001e52 <fork+0xbe>
    if (p->ofile[i])
    80001e40:	6088                	ld	a0,0(s1)
    80001e42:	d97d                	beqz	a0,80001e38 <fork+0xa4>
      np->ofile[i] = filedup(p->ofile[i]);
    80001e44:	00003097          	auipc	ra,0x3
    80001e48:	98e080e7          	jalr	-1650(ra) # 800047d2 <filedup>
    80001e4c:	00a93023          	sd	a0,0(s2)
    80001e50:	b7e5                	j	80001e38 <fork+0xa4>
  np->cwd = idup(p->cwd);
    80001e52:	150ab503          	ld	a0,336(s5)
    80001e56:	00002097          	auipc	ra,0x2
    80001e5a:	b02080e7          	jalr	-1278(ra) # 80003958 <idup>
    80001e5e:	14aa3823          	sd	a0,336(s4)
  safestrcpy(np->name, p->name, sizeof(p->name));
    80001e62:	4641                	li	a2,16
    80001e64:	158a8593          	addi	a1,s5,344
    80001e68:	158a0513          	addi	a0,s4,344
    80001e6c:	fffff097          	auipc	ra,0xfffff
    80001e70:	fb0080e7          	jalr	-80(ra) # 80000e1c <safestrcpy>
  pid = np->pid;
    80001e74:	030a2903          	lw	s2,48(s4)
  release(&np->lock);
    80001e78:	8552                	mv	a0,s4
    80001e7a:	fffff097          	auipc	ra,0xfffff
    80001e7e:	e10080e7          	jalr	-496(ra) # 80000c8a <release>
  acquire(&wait_lock);
    80001e82:	0000f497          	auipc	s1,0xf
    80001e86:	d0648493          	addi	s1,s1,-762 # 80010b88 <wait_lock>
    80001e8a:	8526                	mv	a0,s1
    80001e8c:	fffff097          	auipc	ra,0xfffff
    80001e90:	d4a080e7          	jalr	-694(ra) # 80000bd6 <acquire>
  np->parent = p;
    80001e94:	035a3c23          	sd	s5,56(s4)
  release(&wait_lock);
    80001e98:	8526                	mv	a0,s1
    80001e9a:	fffff097          	auipc	ra,0xfffff
    80001e9e:	df0080e7          	jalr	-528(ra) # 80000c8a <release>
  acquire(&np->lock);
    80001ea2:	8552                	mv	a0,s4
    80001ea4:	fffff097          	auipc	ra,0xfffff
    80001ea8:	d32080e7          	jalr	-718(ra) # 80000bd6 <acquire>
  np->state = RUNNABLE;
    80001eac:	478d                	li	a5,3
    80001eae:	00fa2c23          	sw	a5,24(s4)
  release(&np->lock);
    80001eb2:	8552                	mv	a0,s4
    80001eb4:	fffff097          	auipc	ra,0xfffff
    80001eb8:	dd6080e7          	jalr	-554(ra) # 80000c8a <release>
}
    80001ebc:	854a                	mv	a0,s2
    80001ebe:	70e2                	ld	ra,56(sp)
    80001ec0:	7442                	ld	s0,48(sp)
    80001ec2:	74a2                	ld	s1,40(sp)
    80001ec4:	7902                	ld	s2,32(sp)
    80001ec6:	69e2                	ld	s3,24(sp)
    80001ec8:	6a42                	ld	s4,16(sp)
    80001eca:	6aa2                	ld	s5,8(sp)
    80001ecc:	6121                	addi	sp,sp,64
    80001ece:	8082                	ret
    return -1;
    80001ed0:	597d                	li	s2,-1
    80001ed2:	b7ed                	j	80001ebc <fork+0x128>

0000000080001ed4 <minproc>:
struct proc* minproc(void){
    80001ed4:	1141                	addi	sp,sp,-16
    80001ed6:	e422                	sd	s0,8(sp)
    80001ed8:	0800                	addi	s0,sp,16
    struct proc* temp = 0; 
    80001eda:	4501                	li	a0,0
    int min = __INT_MAX__;
    80001edc:	800005b7          	lui	a1,0x80000
    80001ee0:	fff5c593          	not	a1,a1
    for(p = proc; p < &proc[NPROC]; p++){
    80001ee4:	00013797          	auipc	a5,0x13
    80001ee8:	f3c78793          	addi	a5,a5,-196 # 80014e20 <proc>
        if(p->state == RUNNABLE && p->arrival < min){
    80001eec:	460d                	li	a2,3
    for(p = proc; p < &proc[NPROC]; p++){
    80001eee:	0001a697          	auipc	a3,0x1a
    80001ef2:	b3268693          	addi	a3,a3,-1230 # 8001ba20 <tickslock>
    80001ef6:	a029                	j	80001f00 <minproc+0x2c>
    80001ef8:	1b078793          	addi	a5,a5,432
    80001efc:	00d78c63          	beq	a5,a3,80001f14 <minproc+0x40>
        if(p->state == RUNNABLE && p->arrival < min){
    80001f00:	4f98                	lw	a4,24(a5)
    80001f02:	fec71be3          	bne	a4,a2,80001ef8 <minproc+0x24>
    80001f06:	1947a703          	lw	a4,404(a5)
    80001f0a:	feb757e3          	bge	a4,a1,80001ef8 <minproc+0x24>
    80001f0e:	853e                	mv	a0,a5
            min = p->arrival;
    80001f10:	85ba                	mv	a1,a4
    80001f12:	b7dd                	j	80001ef8 <minproc+0x24>
}
    80001f14:	6422                	ld	s0,8(sp)
    80001f16:	0141                	addi	sp,sp,16
    80001f18:	8082                	ret

0000000080001f1a <scheduler>:
{
    80001f1a:	7139                	addi	sp,sp,-64
    80001f1c:	fc06                	sd	ra,56(sp)
    80001f1e:	f822                	sd	s0,48(sp)
    80001f20:	f426                	sd	s1,40(sp)
    80001f22:	f04a                	sd	s2,32(sp)
    80001f24:	ec4e                	sd	s3,24(sp)
    80001f26:	e852                	sd	s4,16(sp)
    80001f28:	e456                	sd	s5,8(sp)
    80001f2a:	e05a                	sd	s6,0(sp)
    80001f2c:	0080                	addi	s0,sp,64
    80001f2e:	8792                	mv	a5,tp
  int id = r_tp();
    80001f30:	2781                	sext.w	a5,a5
  c->proc = 0;
    80001f32:	00779a93          	slli	s5,a5,0x7
    80001f36:	0000f717          	auipc	a4,0xf
    80001f3a:	c3a70713          	addi	a4,a4,-966 # 80010b70 <pid_lock>
    80001f3e:	9756                	add	a4,a4,s5
    80001f40:	02073823          	sd	zero,48(a4)
        swtch(&c->context, &p->context);
    80001f44:	0000f717          	auipc	a4,0xf
    80001f48:	c6470713          	addi	a4,a4,-924 # 80010ba8 <cpus+0x8>
    80001f4c:	9aba                	add	s5,s5,a4
      if (p->state == RUNNABLE)
    80001f4e:	498d                	li	s3,3
        p->state = RUNNING;
    80001f50:	4b11                	li	s6,4
        c->proc = p;
    80001f52:	079e                	slli	a5,a5,0x7
    80001f54:	0000fa17          	auipc	s4,0xf
    80001f58:	c1ca0a13          	addi	s4,s4,-996 # 80010b70 <pid_lock>
    80001f5c:	9a3e                	add	s4,s4,a5
    for (p = proc; p < &proc[NPROC]; p++)
    80001f5e:	0001a917          	auipc	s2,0x1a
    80001f62:	ac290913          	addi	s2,s2,-1342 # 8001ba20 <tickslock>
  asm volatile("csrr %0, sstatus" : "=r" (x) );
    80001f66:	100027f3          	csrr	a5,sstatus
  w_sstatus(r_sstatus() | SSTATUS_SIE);
    80001f6a:	0027e793          	ori	a5,a5,2
  asm volatile("csrw sstatus, %0" : : "r" (x));
    80001f6e:	10079073          	csrw	sstatus,a5
    80001f72:	00013497          	auipc	s1,0x13
    80001f76:	eae48493          	addi	s1,s1,-338 # 80014e20 <proc>
    80001f7a:	a811                	j	80001f8e <scheduler+0x74>
      release(&p->lock);
    80001f7c:	8526                	mv	a0,s1
    80001f7e:	fffff097          	auipc	ra,0xfffff
    80001f82:	d0c080e7          	jalr	-756(ra) # 80000c8a <release>
    for (p = proc; p < &proc[NPROC]; p++)
    80001f86:	1b048493          	addi	s1,s1,432
    80001f8a:	fd248ee3          	beq	s1,s2,80001f66 <scheduler+0x4c>
      acquire(&p->lock);
    80001f8e:	8526                	mv	a0,s1
    80001f90:	fffff097          	auipc	ra,0xfffff
    80001f94:	c46080e7          	jalr	-954(ra) # 80000bd6 <acquire>
      if (p->state == RUNNABLE)
    80001f98:	4c9c                	lw	a5,24(s1)
    80001f9a:	ff3791e3          	bne	a5,s3,80001f7c <scheduler+0x62>
        p->state = RUNNING;
    80001f9e:	0164ac23          	sw	s6,24(s1)
        c->proc = p;
    80001fa2:	029a3823          	sd	s1,48(s4)
        swtch(&c->context, &p->context);
    80001fa6:	06048593          	addi	a1,s1,96
    80001faa:	8556                	mv	a0,s5
    80001fac:	00001097          	auipc	ra,0x1
    80001fb0:	838080e7          	jalr	-1992(ra) # 800027e4 <swtch>
        c->proc = 0;
    80001fb4:	020a3823          	sd	zero,48(s4)
    80001fb8:	b7d1                	j	80001f7c <scheduler+0x62>

0000000080001fba <sched>:
{
    80001fba:	7179                	addi	sp,sp,-48
    80001fbc:	f406                	sd	ra,40(sp)
    80001fbe:	f022                	sd	s0,32(sp)
    80001fc0:	ec26                	sd	s1,24(sp)
    80001fc2:	e84a                	sd	s2,16(sp)
    80001fc4:	e44e                	sd	s3,8(sp)
    80001fc6:	1800                	addi	s0,sp,48
  struct proc *p = myproc();
    80001fc8:	00000097          	auipc	ra,0x0
    80001fcc:	9e4080e7          	jalr	-1564(ra) # 800019ac <myproc>
    80001fd0:	84aa                	mv	s1,a0
  if (!holding(&p->lock))
    80001fd2:	fffff097          	auipc	ra,0xfffff
    80001fd6:	b8a080e7          	jalr	-1142(ra) # 80000b5c <holding>
    80001fda:	c93d                	beqz	a0,80002050 <sched+0x96>
  asm volatile("mv %0, tp" : "=r" (x) );
    80001fdc:	8792                	mv	a5,tp
  if (mycpu()->noff != 1)
    80001fde:	2781                	sext.w	a5,a5
    80001fe0:	079e                	slli	a5,a5,0x7
    80001fe2:	0000f717          	auipc	a4,0xf
    80001fe6:	b8e70713          	addi	a4,a4,-1138 # 80010b70 <pid_lock>
    80001fea:	97ba                	add	a5,a5,a4
    80001fec:	0a87a703          	lw	a4,168(a5)
    80001ff0:	4785                	li	a5,1
    80001ff2:	06f71763          	bne	a4,a5,80002060 <sched+0xa6>
  if (p->state == RUNNING)
    80001ff6:	4c98                	lw	a4,24(s1)
    80001ff8:	4791                	li	a5,4
    80001ffa:	06f70b63          	beq	a4,a5,80002070 <sched+0xb6>
  asm volatile("csrr %0, sstatus" : "=r" (x) );
    80001ffe:	100027f3          	csrr	a5,sstatus
  return (x & SSTATUS_SIE) != 0;
    80002002:	8b89                	andi	a5,a5,2
  if (intr_get())
    80002004:	efb5                	bnez	a5,80002080 <sched+0xc6>
  asm volatile("mv %0, tp" : "=r" (x) );
    80002006:	8792                	mv	a5,tp
  intena = mycpu()->intena;
    80002008:	0000f917          	auipc	s2,0xf
    8000200c:	b6890913          	addi	s2,s2,-1176 # 80010b70 <pid_lock>
    80002010:	2781                	sext.w	a5,a5
    80002012:	079e                	slli	a5,a5,0x7
    80002014:	97ca                	add	a5,a5,s2
    80002016:	0ac7a983          	lw	s3,172(a5)
    8000201a:	8792                	mv	a5,tp
  swtch(&p->context, &mycpu()->context);
    8000201c:	2781                	sext.w	a5,a5
    8000201e:	079e                	slli	a5,a5,0x7
    80002020:	0000f597          	auipc	a1,0xf
    80002024:	b8858593          	addi	a1,a1,-1144 # 80010ba8 <cpus+0x8>
    80002028:	95be                	add	a1,a1,a5
    8000202a:	06048513          	addi	a0,s1,96
    8000202e:	00000097          	auipc	ra,0x0
    80002032:	7b6080e7          	jalr	1974(ra) # 800027e4 <swtch>
    80002036:	8792                	mv	a5,tp
  mycpu()->intena = intena;
    80002038:	2781                	sext.w	a5,a5
    8000203a:	079e                	slli	a5,a5,0x7
    8000203c:	97ca                	add	a5,a5,s2
    8000203e:	0b37a623          	sw	s3,172(a5)
}
    80002042:	70a2                	ld	ra,40(sp)
    80002044:	7402                	ld	s0,32(sp)
    80002046:	64e2                	ld	s1,24(sp)
    80002048:	6942                	ld	s2,16(sp)
    8000204a:	69a2                	ld	s3,8(sp)
    8000204c:	6145                	addi	sp,sp,48
    8000204e:	8082                	ret
    panic("sched p->lock");
    80002050:	00006517          	auipc	a0,0x6
    80002054:	1c850513          	addi	a0,a0,456 # 80008218 <digits+0x1d8>
    80002058:	ffffe097          	auipc	ra,0xffffe
    8000205c:	4e6080e7          	jalr	1254(ra) # 8000053e <panic>
    panic("sched locks");
    80002060:	00006517          	auipc	a0,0x6
    80002064:	1c850513          	addi	a0,a0,456 # 80008228 <digits+0x1e8>
    80002068:	ffffe097          	auipc	ra,0xffffe
    8000206c:	4d6080e7          	jalr	1238(ra) # 8000053e <panic>
    panic("sched running");
    80002070:	00006517          	auipc	a0,0x6
    80002074:	1c850513          	addi	a0,a0,456 # 80008238 <digits+0x1f8>
    80002078:	ffffe097          	auipc	ra,0xffffe
    8000207c:	4c6080e7          	jalr	1222(ra) # 8000053e <panic>
    panic("sched interruptible");
    80002080:	00006517          	auipc	a0,0x6
    80002084:	1c850513          	addi	a0,a0,456 # 80008248 <digits+0x208>
    80002088:	ffffe097          	auipc	ra,0xffffe
    8000208c:	4b6080e7          	jalr	1206(ra) # 8000053e <panic>

0000000080002090 <yield>:
{
    80002090:	1101                	addi	sp,sp,-32
    80002092:	ec06                	sd	ra,24(sp)
    80002094:	e822                	sd	s0,16(sp)
    80002096:	e426                	sd	s1,8(sp)
    80002098:	1000                	addi	s0,sp,32
  struct proc *p = myproc();
    8000209a:	00000097          	auipc	ra,0x0
    8000209e:	912080e7          	jalr	-1774(ra) # 800019ac <myproc>
    800020a2:	84aa                	mv	s1,a0
  acquire(&p->lock);
    800020a4:	fffff097          	auipc	ra,0xfffff
    800020a8:	b32080e7          	jalr	-1230(ra) # 80000bd6 <acquire>
  p->state = RUNNABLE;
    800020ac:	478d                	li	a5,3
    800020ae:	cc9c                	sw	a5,24(s1)
  sched();
    800020b0:	00000097          	auipc	ra,0x0
    800020b4:	f0a080e7          	jalr	-246(ra) # 80001fba <sched>
  release(&p->lock);
    800020b8:	8526                	mv	a0,s1
    800020ba:	fffff097          	auipc	ra,0xfffff
    800020be:	bd0080e7          	jalr	-1072(ra) # 80000c8a <release>
}
    800020c2:	60e2                	ld	ra,24(sp)
    800020c4:	6442                	ld	s0,16(sp)
    800020c6:	64a2                	ld	s1,8(sp)
    800020c8:	6105                	addi	sp,sp,32
    800020ca:	8082                	ret

00000000800020cc <sleep>:

// Atomically release lock and sleep on chan.
// Reacquires lock when awakened.
void sleep(void *chan, struct spinlock *lk)
{
    800020cc:	7179                	addi	sp,sp,-48
    800020ce:	f406                	sd	ra,40(sp)
    800020d0:	f022                	sd	s0,32(sp)
    800020d2:	ec26                	sd	s1,24(sp)
    800020d4:	e84a                	sd	s2,16(sp)
    800020d6:	e44e                	sd	s3,8(sp)
    800020d8:	1800                	addi	s0,sp,48
    800020da:	89aa                	mv	s3,a0
    800020dc:	892e                	mv	s2,a1
  struct proc *p = myproc();
    800020de:	00000097          	auipc	ra,0x0
    800020e2:	8ce080e7          	jalr	-1842(ra) # 800019ac <myproc>
    800020e6:	84aa                	mv	s1,a0
  // Once we hold p->lock, we can be
  // guaranteed that we won't miss any wakeup
  // (wakeup locks p->lock),
  // so it's okay to release lk.

  acquire(&p->lock); // DOC: sleeplock1
    800020e8:	fffff097          	auipc	ra,0xfffff
    800020ec:	aee080e7          	jalr	-1298(ra) # 80000bd6 <acquire>
  release(lk);
    800020f0:	854a                	mv	a0,s2
    800020f2:	fffff097          	auipc	ra,0xfffff
    800020f6:	b98080e7          	jalr	-1128(ra) # 80000c8a <release>

  // Go to sleep.
  p->chan = chan;
    800020fa:	0334b023          	sd	s3,32(s1)
  p->state = SLEEPING;
    800020fe:	4789                	li	a5,2
    80002100:	cc9c                	sw	a5,24(s1)

  sched();
    80002102:	00000097          	auipc	ra,0x0
    80002106:	eb8080e7          	jalr	-328(ra) # 80001fba <sched>

  // Tidy up.
  p->chan = 0;
    8000210a:	0204b023          	sd	zero,32(s1)

  // Reacquire original lock.
  release(&p->lock);
    8000210e:	8526                	mv	a0,s1
    80002110:	fffff097          	auipc	ra,0xfffff
    80002114:	b7a080e7          	jalr	-1158(ra) # 80000c8a <release>
  acquire(lk);
    80002118:	854a                	mv	a0,s2
    8000211a:	fffff097          	auipc	ra,0xfffff
    8000211e:	abc080e7          	jalr	-1348(ra) # 80000bd6 <acquire>
}
    80002122:	70a2                	ld	ra,40(sp)
    80002124:	7402                	ld	s0,32(sp)
    80002126:	64e2                	ld	s1,24(sp)
    80002128:	6942                	ld	s2,16(sp)
    8000212a:	69a2                	ld	s3,8(sp)
    8000212c:	6145                	addi	sp,sp,48
    8000212e:	8082                	ret

0000000080002130 <wakeup>:

// Wake up all processes sleeping on chan.
// Must be called without any p->lock.
void wakeup(void *chan)
{
    80002130:	7139                	addi	sp,sp,-64
    80002132:	fc06                	sd	ra,56(sp)
    80002134:	f822                	sd	s0,48(sp)
    80002136:	f426                	sd	s1,40(sp)
    80002138:	f04a                	sd	s2,32(sp)
    8000213a:	ec4e                	sd	s3,24(sp)
    8000213c:	e852                	sd	s4,16(sp)
    8000213e:	e456                	sd	s5,8(sp)
    80002140:	0080                	addi	s0,sp,64
    80002142:	8a2a                	mv	s4,a0
  struct proc *p;

  for (p = proc; p < &proc[NPROC]; p++)
    80002144:	00013497          	auipc	s1,0x13
    80002148:	cdc48493          	addi	s1,s1,-804 # 80014e20 <proc>
  {
    if (p != myproc())
    {
      acquire(&p->lock);
      if (p->state == SLEEPING && p->chan == chan)
    8000214c:	4989                	li	s3,2
      {
        p->state = RUNNABLE;
    8000214e:	4a8d                	li	s5,3
  for (p = proc; p < &proc[NPROC]; p++)
    80002150:	0001a917          	auipc	s2,0x1a
    80002154:	8d090913          	addi	s2,s2,-1840 # 8001ba20 <tickslock>
    80002158:	a811                	j	8000216c <wakeup+0x3c>
      }
      release(&p->lock);
    8000215a:	8526                	mv	a0,s1
    8000215c:	fffff097          	auipc	ra,0xfffff
    80002160:	b2e080e7          	jalr	-1234(ra) # 80000c8a <release>
  for (p = proc; p < &proc[NPROC]; p++)
    80002164:	1b048493          	addi	s1,s1,432
    80002168:	03248663          	beq	s1,s2,80002194 <wakeup+0x64>
    if (p != myproc())
    8000216c:	00000097          	auipc	ra,0x0
    80002170:	840080e7          	jalr	-1984(ra) # 800019ac <myproc>
    80002174:	fea488e3          	beq	s1,a0,80002164 <wakeup+0x34>
      acquire(&p->lock);
    80002178:	8526                	mv	a0,s1
    8000217a:	fffff097          	auipc	ra,0xfffff
    8000217e:	a5c080e7          	jalr	-1444(ra) # 80000bd6 <acquire>
      if (p->state == SLEEPING && p->chan == chan)
    80002182:	4c9c                	lw	a5,24(s1)
    80002184:	fd379be3          	bne	a5,s3,8000215a <wakeup+0x2a>
    80002188:	709c                	ld	a5,32(s1)
    8000218a:	fd4798e3          	bne	a5,s4,8000215a <wakeup+0x2a>
        p->state = RUNNABLE;
    8000218e:	0154ac23          	sw	s5,24(s1)
    80002192:	b7e1                	j	8000215a <wakeup+0x2a>
    }
  }
}
    80002194:	70e2                	ld	ra,56(sp)
    80002196:	7442                	ld	s0,48(sp)
    80002198:	74a2                	ld	s1,40(sp)
    8000219a:	7902                	ld	s2,32(sp)
    8000219c:	69e2                	ld	s3,24(sp)
    8000219e:	6a42                	ld	s4,16(sp)
    800021a0:	6aa2                	ld	s5,8(sp)
    800021a2:	6121                	addi	sp,sp,64
    800021a4:	8082                	ret

00000000800021a6 <reparent>:
{
    800021a6:	7179                	addi	sp,sp,-48
    800021a8:	f406                	sd	ra,40(sp)
    800021aa:	f022                	sd	s0,32(sp)
    800021ac:	ec26                	sd	s1,24(sp)
    800021ae:	e84a                	sd	s2,16(sp)
    800021b0:	e44e                	sd	s3,8(sp)
    800021b2:	e052                	sd	s4,0(sp)
    800021b4:	1800                	addi	s0,sp,48
    800021b6:	892a                	mv	s2,a0
  for (pp = proc; pp < &proc[NPROC]; pp++)
    800021b8:	00013497          	auipc	s1,0x13
    800021bc:	c6848493          	addi	s1,s1,-920 # 80014e20 <proc>
      pp->parent = initproc;
    800021c0:	00006a17          	auipc	s4,0x6
    800021c4:	728a0a13          	addi	s4,s4,1832 # 800088e8 <initproc>
  for (pp = proc; pp < &proc[NPROC]; pp++)
    800021c8:	0001a997          	auipc	s3,0x1a
    800021cc:	85898993          	addi	s3,s3,-1960 # 8001ba20 <tickslock>
    800021d0:	a029                	j	800021da <reparent+0x34>
    800021d2:	1b048493          	addi	s1,s1,432
    800021d6:	01348d63          	beq	s1,s3,800021f0 <reparent+0x4a>
    if (pp->parent == p)
    800021da:	7c9c                	ld	a5,56(s1)
    800021dc:	ff279be3          	bne	a5,s2,800021d2 <reparent+0x2c>
      pp->parent = initproc;
    800021e0:	000a3503          	ld	a0,0(s4)
    800021e4:	fc88                	sd	a0,56(s1)
      wakeup(initproc);
    800021e6:	00000097          	auipc	ra,0x0
    800021ea:	f4a080e7          	jalr	-182(ra) # 80002130 <wakeup>
    800021ee:	b7d5                	j	800021d2 <reparent+0x2c>
}
    800021f0:	70a2                	ld	ra,40(sp)
    800021f2:	7402                	ld	s0,32(sp)
    800021f4:	64e2                	ld	s1,24(sp)
    800021f6:	6942                	ld	s2,16(sp)
    800021f8:	69a2                	ld	s3,8(sp)
    800021fa:	6a02                	ld	s4,0(sp)
    800021fc:	6145                	addi	sp,sp,48
    800021fe:	8082                	ret

0000000080002200 <exit>:
{
    80002200:	7179                	addi	sp,sp,-48
    80002202:	f406                	sd	ra,40(sp)
    80002204:	f022                	sd	s0,32(sp)
    80002206:	ec26                	sd	s1,24(sp)
    80002208:	e84a                	sd	s2,16(sp)
    8000220a:	e44e                	sd	s3,8(sp)
    8000220c:	e052                	sd	s4,0(sp)
    8000220e:	1800                	addi	s0,sp,48
    80002210:	8a2a                	mv	s4,a0
  struct proc *p = myproc();
    80002212:	fffff097          	auipc	ra,0xfffff
    80002216:	79a080e7          	jalr	1946(ra) # 800019ac <myproc>
    8000221a:	89aa                	mv	s3,a0
  if (p == initproc)
    8000221c:	00006797          	auipc	a5,0x6
    80002220:	6cc7b783          	ld	a5,1740(a5) # 800088e8 <initproc>
    80002224:	0d050493          	addi	s1,a0,208
    80002228:	15050913          	addi	s2,a0,336
    8000222c:	02a79363          	bne	a5,a0,80002252 <exit+0x52>
    panic("init exiting");
    80002230:	00006517          	auipc	a0,0x6
    80002234:	03050513          	addi	a0,a0,48 # 80008260 <digits+0x220>
    80002238:	ffffe097          	auipc	ra,0xffffe
    8000223c:	306080e7          	jalr	774(ra) # 8000053e <panic>
      fileclose(f);
    80002240:	00002097          	auipc	ra,0x2
    80002244:	5e4080e7          	jalr	1508(ra) # 80004824 <fileclose>
      p->ofile[fd] = 0;
    80002248:	0004b023          	sd	zero,0(s1)
  for (int fd = 0; fd < NOFILE; fd++)
    8000224c:	04a1                	addi	s1,s1,8
    8000224e:	01248563          	beq	s1,s2,80002258 <exit+0x58>
    if (p->ofile[fd])
    80002252:	6088                	ld	a0,0(s1)
    80002254:	f575                	bnez	a0,80002240 <exit+0x40>
    80002256:	bfdd                	j	8000224c <exit+0x4c>
  begin_op();
    80002258:	00002097          	auipc	ra,0x2
    8000225c:	100080e7          	jalr	256(ra) # 80004358 <begin_op>
  iput(p->cwd);
    80002260:	1509b503          	ld	a0,336(s3)
    80002264:	00002097          	auipc	ra,0x2
    80002268:	8ec080e7          	jalr	-1812(ra) # 80003b50 <iput>
  end_op();
    8000226c:	00002097          	auipc	ra,0x2
    80002270:	16c080e7          	jalr	364(ra) # 800043d8 <end_op>
  p->cwd = 0;
    80002274:	1409b823          	sd	zero,336(s3)
  acquire(&wait_lock);
    80002278:	0000f497          	auipc	s1,0xf
    8000227c:	91048493          	addi	s1,s1,-1776 # 80010b88 <wait_lock>
    80002280:	8526                	mv	a0,s1
    80002282:	fffff097          	auipc	ra,0xfffff
    80002286:	954080e7          	jalr	-1708(ra) # 80000bd6 <acquire>
  reparent(p);
    8000228a:	854e                	mv	a0,s3
    8000228c:	00000097          	auipc	ra,0x0
    80002290:	f1a080e7          	jalr	-230(ra) # 800021a6 <reparent>
  wakeup(p->parent);
    80002294:	0389b503          	ld	a0,56(s3)
    80002298:	00000097          	auipc	ra,0x0
    8000229c:	e98080e7          	jalr	-360(ra) # 80002130 <wakeup>
  acquire(&p->lock);
    800022a0:	854e                	mv	a0,s3
    800022a2:	fffff097          	auipc	ra,0xfffff
    800022a6:	934080e7          	jalr	-1740(ra) # 80000bd6 <acquire>
  p->xstate = status;
    800022aa:	0349a623          	sw	s4,44(s3)
  p->state = ZOMBIE;
    800022ae:	4795                	li	a5,5
    800022b0:	00f9ac23          	sw	a5,24(s3)
  p->etime = ticks;
    800022b4:	00006797          	auipc	a5,0x6
    800022b8:	6487a783          	lw	a5,1608(a5) # 800088fc <ticks>
    800022bc:	16f9a823          	sw	a5,368(s3)
  release(&wait_lock);
    800022c0:	8526                	mv	a0,s1
    800022c2:	fffff097          	auipc	ra,0xfffff
    800022c6:	9c8080e7          	jalr	-1592(ra) # 80000c8a <release>
  sched();
    800022ca:	00000097          	auipc	ra,0x0
    800022ce:	cf0080e7          	jalr	-784(ra) # 80001fba <sched>
  panic("zombie exit");
    800022d2:	00006517          	auipc	a0,0x6
    800022d6:	f9e50513          	addi	a0,a0,-98 # 80008270 <digits+0x230>
    800022da:	ffffe097          	auipc	ra,0xffffe
    800022de:	264080e7          	jalr	612(ra) # 8000053e <panic>

00000000800022e2 <kill>:

// Kill the process with the given pid.
// The victim won't exit until it tries to return
// to user space (see usertrap() in trap.c).
int kill(int pid)
{
    800022e2:	7179                	addi	sp,sp,-48
    800022e4:	f406                	sd	ra,40(sp)
    800022e6:	f022                	sd	s0,32(sp)
    800022e8:	ec26                	sd	s1,24(sp)
    800022ea:	e84a                	sd	s2,16(sp)
    800022ec:	e44e                	sd	s3,8(sp)
    800022ee:	1800                	addi	s0,sp,48
    800022f0:	892a                	mv	s2,a0
  struct proc *p;

  for (p = proc; p < &proc[NPROC]; p++)
    800022f2:	00013497          	auipc	s1,0x13
    800022f6:	b2e48493          	addi	s1,s1,-1234 # 80014e20 <proc>
    800022fa:	00019997          	auipc	s3,0x19
    800022fe:	72698993          	addi	s3,s3,1830 # 8001ba20 <tickslock>
  {
    acquire(&p->lock);
    80002302:	8526                	mv	a0,s1
    80002304:	fffff097          	auipc	ra,0xfffff
    80002308:	8d2080e7          	jalr	-1838(ra) # 80000bd6 <acquire>
    if (p->pid == pid)
    8000230c:	589c                	lw	a5,48(s1)
    8000230e:	01278d63          	beq	a5,s2,80002328 <kill+0x46>
        p->state = RUNNABLE;
      }
      release(&p->lock);
      return 0;
    }
    release(&p->lock);
    80002312:	8526                	mv	a0,s1
    80002314:	fffff097          	auipc	ra,0xfffff
    80002318:	976080e7          	jalr	-1674(ra) # 80000c8a <release>
  for (p = proc; p < &proc[NPROC]; p++)
    8000231c:	1b048493          	addi	s1,s1,432
    80002320:	ff3491e3          	bne	s1,s3,80002302 <kill+0x20>
  }
  return -1;
    80002324:	557d                	li	a0,-1
    80002326:	a829                	j	80002340 <kill+0x5e>
      p->killed = 1;
    80002328:	4785                	li	a5,1
    8000232a:	d49c                	sw	a5,40(s1)
      if (p->state == SLEEPING)
    8000232c:	4c98                	lw	a4,24(s1)
    8000232e:	4789                	li	a5,2
    80002330:	00f70f63          	beq	a4,a5,8000234e <kill+0x6c>
      release(&p->lock);
    80002334:	8526                	mv	a0,s1
    80002336:	fffff097          	auipc	ra,0xfffff
    8000233a:	954080e7          	jalr	-1708(ra) # 80000c8a <release>
      return 0;
    8000233e:	4501                	li	a0,0
}
    80002340:	70a2                	ld	ra,40(sp)
    80002342:	7402                	ld	s0,32(sp)
    80002344:	64e2                	ld	s1,24(sp)
    80002346:	6942                	ld	s2,16(sp)
    80002348:	69a2                	ld	s3,8(sp)
    8000234a:	6145                	addi	sp,sp,48
    8000234c:	8082                	ret
        p->state = RUNNABLE;
    8000234e:	478d                	li	a5,3
    80002350:	cc9c                	sw	a5,24(s1)
    80002352:	b7cd                	j	80002334 <kill+0x52>

0000000080002354 <setkilled>:

void setkilled(struct proc *p)
{
    80002354:	1101                	addi	sp,sp,-32
    80002356:	ec06                	sd	ra,24(sp)
    80002358:	e822                	sd	s0,16(sp)
    8000235a:	e426                	sd	s1,8(sp)
    8000235c:	1000                	addi	s0,sp,32
    8000235e:	84aa                	mv	s1,a0
  acquire(&p->lock);
    80002360:	fffff097          	auipc	ra,0xfffff
    80002364:	876080e7          	jalr	-1930(ra) # 80000bd6 <acquire>
  p->killed = 1;
    80002368:	4785                	li	a5,1
    8000236a:	d49c                	sw	a5,40(s1)
  release(&p->lock);
    8000236c:	8526                	mv	a0,s1
    8000236e:	fffff097          	auipc	ra,0xfffff
    80002372:	91c080e7          	jalr	-1764(ra) # 80000c8a <release>
}
    80002376:	60e2                	ld	ra,24(sp)
    80002378:	6442                	ld	s0,16(sp)
    8000237a:	64a2                	ld	s1,8(sp)
    8000237c:	6105                	addi	sp,sp,32
    8000237e:	8082                	ret

0000000080002380 <killed>:

int killed(struct proc *p)
{
    80002380:	1101                	addi	sp,sp,-32
    80002382:	ec06                	sd	ra,24(sp)
    80002384:	e822                	sd	s0,16(sp)
    80002386:	e426                	sd	s1,8(sp)
    80002388:	e04a                	sd	s2,0(sp)
    8000238a:	1000                	addi	s0,sp,32
    8000238c:	84aa                	mv	s1,a0
  int k;

  acquire(&p->lock);
    8000238e:	fffff097          	auipc	ra,0xfffff
    80002392:	848080e7          	jalr	-1976(ra) # 80000bd6 <acquire>
  k = p->killed;
    80002396:	0284a903          	lw	s2,40(s1)
  release(&p->lock);
    8000239a:	8526                	mv	a0,s1
    8000239c:	fffff097          	auipc	ra,0xfffff
    800023a0:	8ee080e7          	jalr	-1810(ra) # 80000c8a <release>
  return k;
}
    800023a4:	854a                	mv	a0,s2
    800023a6:	60e2                	ld	ra,24(sp)
    800023a8:	6442                	ld	s0,16(sp)
    800023aa:	64a2                	ld	s1,8(sp)
    800023ac:	6902                	ld	s2,0(sp)
    800023ae:	6105                	addi	sp,sp,32
    800023b0:	8082                	ret

00000000800023b2 <wait>:
{
    800023b2:	715d                	addi	sp,sp,-80
    800023b4:	e486                	sd	ra,72(sp)
    800023b6:	e0a2                	sd	s0,64(sp)
    800023b8:	fc26                	sd	s1,56(sp)
    800023ba:	f84a                	sd	s2,48(sp)
    800023bc:	f44e                	sd	s3,40(sp)
    800023be:	f052                	sd	s4,32(sp)
    800023c0:	ec56                	sd	s5,24(sp)
    800023c2:	e85a                	sd	s6,16(sp)
    800023c4:	e45e                	sd	s7,8(sp)
    800023c6:	e062                	sd	s8,0(sp)
    800023c8:	0880                	addi	s0,sp,80
    800023ca:	8b2a                	mv	s6,a0
  struct proc *p = myproc();
    800023cc:	fffff097          	auipc	ra,0xfffff
    800023d0:	5e0080e7          	jalr	1504(ra) # 800019ac <myproc>
    800023d4:	892a                	mv	s2,a0
  acquire(&wait_lock);
    800023d6:	0000e517          	auipc	a0,0xe
    800023da:	7b250513          	addi	a0,a0,1970 # 80010b88 <wait_lock>
    800023de:	ffffe097          	auipc	ra,0xffffe
    800023e2:	7f8080e7          	jalr	2040(ra) # 80000bd6 <acquire>
    havekids = 0;
    800023e6:	4b81                	li	s7,0
        if (pp->state == ZOMBIE)
    800023e8:	4a15                	li	s4,5
        havekids = 1;
    800023ea:	4a85                	li	s5,1
    for (pp = proc; pp < &proc[NPROC]; pp++)
    800023ec:	00019997          	auipc	s3,0x19
    800023f0:	63498993          	addi	s3,s3,1588 # 8001ba20 <tickslock>
    sleep(p, &wait_lock); // DOC: wait-sleep
    800023f4:	0000ec17          	auipc	s8,0xe
    800023f8:	794c0c13          	addi	s8,s8,1940 # 80010b88 <wait_lock>
    havekids = 0;
    800023fc:	875e                	mv	a4,s7
    for (pp = proc; pp < &proc[NPROC]; pp++)
    800023fe:	00013497          	auipc	s1,0x13
    80002402:	a2248493          	addi	s1,s1,-1502 # 80014e20 <proc>
    80002406:	a0bd                	j	80002474 <wait+0xc2>
          pid = pp->pid;
    80002408:	0304a983          	lw	s3,48(s1)
          if (addr != 0 && copyout(p->pagetable, addr, (char *)&pp->xstate,
    8000240c:	000b0e63          	beqz	s6,80002428 <wait+0x76>
    80002410:	4691                	li	a3,4
    80002412:	02c48613          	addi	a2,s1,44
    80002416:	85da                	mv	a1,s6
    80002418:	05093503          	ld	a0,80(s2)
    8000241c:	fffff097          	auipc	ra,0xfffff
    80002420:	24c080e7          	jalr	588(ra) # 80001668 <copyout>
    80002424:	02054563          	bltz	a0,8000244e <wait+0x9c>
          freeproc(pp);
    80002428:	8526                	mv	a0,s1
    8000242a:	fffff097          	auipc	ra,0xfffff
    8000242e:	734080e7          	jalr	1844(ra) # 80001b5e <freeproc>
          release(&pp->lock);
    80002432:	8526                	mv	a0,s1
    80002434:	fffff097          	auipc	ra,0xfffff
    80002438:	856080e7          	jalr	-1962(ra) # 80000c8a <release>
          release(&wait_lock);
    8000243c:	0000e517          	auipc	a0,0xe
    80002440:	74c50513          	addi	a0,a0,1868 # 80010b88 <wait_lock>
    80002444:	fffff097          	auipc	ra,0xfffff
    80002448:	846080e7          	jalr	-1978(ra) # 80000c8a <release>
          return pid;
    8000244c:	a0b5                	j	800024b8 <wait+0x106>
            release(&pp->lock);
    8000244e:	8526                	mv	a0,s1
    80002450:	fffff097          	auipc	ra,0xfffff
    80002454:	83a080e7          	jalr	-1990(ra) # 80000c8a <release>
            release(&wait_lock);
    80002458:	0000e517          	auipc	a0,0xe
    8000245c:	73050513          	addi	a0,a0,1840 # 80010b88 <wait_lock>
    80002460:	fffff097          	auipc	ra,0xfffff
    80002464:	82a080e7          	jalr	-2006(ra) # 80000c8a <release>
            return -1;
    80002468:	59fd                	li	s3,-1
    8000246a:	a0b9                	j	800024b8 <wait+0x106>
    for (pp = proc; pp < &proc[NPROC]; pp++)
    8000246c:	1b048493          	addi	s1,s1,432
    80002470:	03348463          	beq	s1,s3,80002498 <wait+0xe6>
      if (pp->parent == p)
    80002474:	7c9c                	ld	a5,56(s1)
    80002476:	ff279be3          	bne	a5,s2,8000246c <wait+0xba>
        acquire(&pp->lock);
    8000247a:	8526                	mv	a0,s1
    8000247c:	ffffe097          	auipc	ra,0xffffe
    80002480:	75a080e7          	jalr	1882(ra) # 80000bd6 <acquire>
        if (pp->state == ZOMBIE)
    80002484:	4c9c                	lw	a5,24(s1)
    80002486:	f94781e3          	beq	a5,s4,80002408 <wait+0x56>
        release(&pp->lock);
    8000248a:	8526                	mv	a0,s1
    8000248c:	ffffe097          	auipc	ra,0xffffe
    80002490:	7fe080e7          	jalr	2046(ra) # 80000c8a <release>
        havekids = 1;
    80002494:	8756                	mv	a4,s5
    80002496:	bfd9                	j	8000246c <wait+0xba>
    if (!havekids || killed(p))
    80002498:	c719                	beqz	a4,800024a6 <wait+0xf4>
    8000249a:	854a                	mv	a0,s2
    8000249c:	00000097          	auipc	ra,0x0
    800024a0:	ee4080e7          	jalr	-284(ra) # 80002380 <killed>
    800024a4:	c51d                	beqz	a0,800024d2 <wait+0x120>
      release(&wait_lock);
    800024a6:	0000e517          	auipc	a0,0xe
    800024aa:	6e250513          	addi	a0,a0,1762 # 80010b88 <wait_lock>
    800024ae:	ffffe097          	auipc	ra,0xffffe
    800024b2:	7dc080e7          	jalr	2012(ra) # 80000c8a <release>
      return -1;
    800024b6:	59fd                	li	s3,-1
}
    800024b8:	854e                	mv	a0,s3
    800024ba:	60a6                	ld	ra,72(sp)
    800024bc:	6406                	ld	s0,64(sp)
    800024be:	74e2                	ld	s1,56(sp)
    800024c0:	7942                	ld	s2,48(sp)
    800024c2:	79a2                	ld	s3,40(sp)
    800024c4:	7a02                	ld	s4,32(sp)
    800024c6:	6ae2                	ld	s5,24(sp)
    800024c8:	6b42                	ld	s6,16(sp)
    800024ca:	6ba2                	ld	s7,8(sp)
    800024cc:	6c02                	ld	s8,0(sp)
    800024ce:	6161                	addi	sp,sp,80
    800024d0:	8082                	ret
    sleep(p, &wait_lock); // DOC: wait-sleep
    800024d2:	85e2                	mv	a1,s8
    800024d4:	854a                	mv	a0,s2
    800024d6:	00000097          	auipc	ra,0x0
    800024da:	bf6080e7          	jalr	-1034(ra) # 800020cc <sleep>
    havekids = 0;
    800024de:	bf39                	j	800023fc <wait+0x4a>

00000000800024e0 <either_copyout>:

// Copy to either a user address, or kernel address,
// depending on usr_dst.
// Returns 0 on success, -1 on error.
int either_copyout(int user_dst, uint64 dst, void *src, uint64 len)
{
    800024e0:	7179                	addi	sp,sp,-48
    800024e2:	f406                	sd	ra,40(sp)
    800024e4:	f022                	sd	s0,32(sp)
    800024e6:	ec26                	sd	s1,24(sp)
    800024e8:	e84a                	sd	s2,16(sp)
    800024ea:	e44e                	sd	s3,8(sp)
    800024ec:	e052                	sd	s4,0(sp)
    800024ee:	1800                	addi	s0,sp,48
    800024f0:	84aa                	mv	s1,a0
    800024f2:	892e                	mv	s2,a1
    800024f4:	89b2                	mv	s3,a2
    800024f6:	8a36                	mv	s4,a3
  struct proc *p = myproc();
    800024f8:	fffff097          	auipc	ra,0xfffff
    800024fc:	4b4080e7          	jalr	1204(ra) # 800019ac <myproc>
  if (user_dst)
    80002500:	c08d                	beqz	s1,80002522 <either_copyout+0x42>
  {
    return copyout(p->pagetable, dst, src, len);
    80002502:	86d2                	mv	a3,s4
    80002504:	864e                	mv	a2,s3
    80002506:	85ca                	mv	a1,s2
    80002508:	6928                	ld	a0,80(a0)
    8000250a:	fffff097          	auipc	ra,0xfffff
    8000250e:	15e080e7          	jalr	350(ra) # 80001668 <copyout>
  else
  {
    memmove((char *)dst, src, len);
    return 0;
  }
}
    80002512:	70a2                	ld	ra,40(sp)
    80002514:	7402                	ld	s0,32(sp)
    80002516:	64e2                	ld	s1,24(sp)
    80002518:	6942                	ld	s2,16(sp)
    8000251a:	69a2                	ld	s3,8(sp)
    8000251c:	6a02                	ld	s4,0(sp)
    8000251e:	6145                	addi	sp,sp,48
    80002520:	8082                	ret
    memmove((char *)dst, src, len);
    80002522:	000a061b          	sext.w	a2,s4
    80002526:	85ce                	mv	a1,s3
    80002528:	854a                	mv	a0,s2
    8000252a:	fffff097          	auipc	ra,0xfffff
    8000252e:	804080e7          	jalr	-2044(ra) # 80000d2e <memmove>
    return 0;
    80002532:	8526                	mv	a0,s1
    80002534:	bff9                	j	80002512 <either_copyout+0x32>

0000000080002536 <either_copyin>:

// Copy from either a user address, or kernel address,
// depending on usr_src.
// Returns 0 on success, -1 on error.
int either_copyin(void *dst, int user_src, uint64 src, uint64 len)
{
    80002536:	7179                	addi	sp,sp,-48
    80002538:	f406                	sd	ra,40(sp)
    8000253a:	f022                	sd	s0,32(sp)
    8000253c:	ec26                	sd	s1,24(sp)
    8000253e:	e84a                	sd	s2,16(sp)
    80002540:	e44e                	sd	s3,8(sp)
    80002542:	e052                	sd	s4,0(sp)
    80002544:	1800                	addi	s0,sp,48
    80002546:	892a                	mv	s2,a0
    80002548:	84ae                	mv	s1,a1
    8000254a:	89b2                	mv	s3,a2
    8000254c:	8a36                	mv	s4,a3
  struct proc *p = myproc();
    8000254e:	fffff097          	auipc	ra,0xfffff
    80002552:	45e080e7          	jalr	1118(ra) # 800019ac <myproc>
  if (user_src)
    80002556:	c08d                	beqz	s1,80002578 <either_copyin+0x42>
  {
    return copyin(p->pagetable, dst, src, len);
    80002558:	86d2                	mv	a3,s4
    8000255a:	864e                	mv	a2,s3
    8000255c:	85ca                	mv	a1,s2
    8000255e:	6928                	ld	a0,80(a0)
    80002560:	fffff097          	auipc	ra,0xfffff
    80002564:	194080e7          	jalr	404(ra) # 800016f4 <copyin>
  else
  {
    memmove(dst, (char *)src, len);
    return 0;
  }
}
    80002568:	70a2                	ld	ra,40(sp)
    8000256a:	7402                	ld	s0,32(sp)
    8000256c:	64e2                	ld	s1,24(sp)
    8000256e:	6942                	ld	s2,16(sp)
    80002570:	69a2                	ld	s3,8(sp)
    80002572:	6a02                	ld	s4,0(sp)
    80002574:	6145                	addi	sp,sp,48
    80002576:	8082                	ret
    memmove(dst, (char *)src, len);
    80002578:	000a061b          	sext.w	a2,s4
    8000257c:	85ce                	mv	a1,s3
    8000257e:	854a                	mv	a0,s2
    80002580:	ffffe097          	auipc	ra,0xffffe
    80002584:	7ae080e7          	jalr	1966(ra) # 80000d2e <memmove>
    return 0;
    80002588:	8526                	mv	a0,s1
    8000258a:	bff9                	j	80002568 <either_copyin+0x32>

000000008000258c <procdump>:

// Print a process listing to console.  For debugging.
// Runs when user types ^P on console.
// No lock to avoid wedging a stuck machine further.
void procdump(void)
{
    8000258c:	715d                	addi	sp,sp,-80
    8000258e:	e486                	sd	ra,72(sp)
    80002590:	e0a2                	sd	s0,64(sp)
    80002592:	fc26                	sd	s1,56(sp)
    80002594:	f84a                	sd	s2,48(sp)
    80002596:	f44e                	sd	s3,40(sp)
    80002598:	f052                	sd	s4,32(sp)
    8000259a:	ec56                	sd	s5,24(sp)
    8000259c:	e85a                	sd	s6,16(sp)
    8000259e:	e45e                	sd	s7,8(sp)
    800025a0:	0880                	addi	s0,sp,80
      [RUNNING] "run   ",
      [ZOMBIE] "zombie"};
  struct proc *p;
  char *state;

  printf("\n");
    800025a2:	00006517          	auipc	a0,0x6
    800025a6:	b2650513          	addi	a0,a0,-1242 # 800080c8 <digits+0x88>
    800025aa:	ffffe097          	auipc	ra,0xffffe
    800025ae:	fde080e7          	jalr	-34(ra) # 80000588 <printf>
  for (p = proc; p < &proc[NPROC]; p++)
    800025b2:	00013497          	auipc	s1,0x13
    800025b6:	9c648493          	addi	s1,s1,-1594 # 80014f78 <proc+0x158>
    800025ba:	00019917          	auipc	s2,0x19
    800025be:	5be90913          	addi	s2,s2,1470 # 8001bb78 <bcache+0x140>
  {
    if (p->state == UNUSED)
      continue;
    if (p->state >= 0 && p->state < NELEM(states) && states[p->state])
    800025c2:	4b15                	li	s6,5
      state = states[p->state];
    else
      state = "???";
    800025c4:	00006997          	auipc	s3,0x6
    800025c8:	cbc98993          	addi	s3,s3,-836 # 80008280 <digits+0x240>
    printf("%d %s %s", p->pid, state, p->name);
    800025cc:	00006a97          	auipc	s5,0x6
    800025d0:	cbca8a93          	addi	s5,s5,-836 # 80008288 <digits+0x248>
    printf("\n");
    800025d4:	00006a17          	auipc	s4,0x6
    800025d8:	af4a0a13          	addi	s4,s4,-1292 # 800080c8 <digits+0x88>
    if (p->state >= 0 && p->state < NELEM(states) && states[p->state])
    800025dc:	00006b97          	auipc	s7,0x6
    800025e0:	cecb8b93          	addi	s7,s7,-788 # 800082c8 <states.0>
    800025e4:	a00d                	j	80002606 <procdump+0x7a>
    printf("%d %s %s", p->pid, state, p->name);
    800025e6:	ed86a583          	lw	a1,-296(a3)
    800025ea:	8556                	mv	a0,s5
    800025ec:	ffffe097          	auipc	ra,0xffffe
    800025f0:	f9c080e7          	jalr	-100(ra) # 80000588 <printf>
    printf("\n");
    800025f4:	8552                	mv	a0,s4
    800025f6:	ffffe097          	auipc	ra,0xffffe
    800025fa:	f92080e7          	jalr	-110(ra) # 80000588 <printf>
  for (p = proc; p < &proc[NPROC]; p++)
    800025fe:	1b048493          	addi	s1,s1,432
    80002602:	03248163          	beq	s1,s2,80002624 <procdump+0x98>
    if (p->state == UNUSED)
    80002606:	86a6                	mv	a3,s1
    80002608:	ec04a783          	lw	a5,-320(s1)
    8000260c:	dbed                	beqz	a5,800025fe <procdump+0x72>
      state = "???";
    8000260e:	864e                	mv	a2,s3
    if (p->state >= 0 && p->state < NELEM(states) && states[p->state])
    80002610:	fcfb6be3          	bltu	s6,a5,800025e6 <procdump+0x5a>
    80002614:	1782                	slli	a5,a5,0x20
    80002616:	9381                	srli	a5,a5,0x20
    80002618:	078e                	slli	a5,a5,0x3
    8000261a:	97de                	add	a5,a5,s7
    8000261c:	6390                	ld	a2,0(a5)
    8000261e:	f661                	bnez	a2,800025e6 <procdump+0x5a>
      state = "???";
    80002620:	864e                	mv	a2,s3
    80002622:	b7d1                	j	800025e6 <procdump+0x5a>
  }
}
    80002624:	60a6                	ld	ra,72(sp)
    80002626:	6406                	ld	s0,64(sp)
    80002628:	74e2                	ld	s1,56(sp)
    8000262a:	7942                	ld	s2,48(sp)
    8000262c:	79a2                	ld	s3,40(sp)
    8000262e:	7a02                	ld	s4,32(sp)
    80002630:	6ae2                	ld	s5,24(sp)
    80002632:	6b42                	ld	s6,16(sp)
    80002634:	6ba2                	ld	s7,8(sp)
    80002636:	6161                	addi	sp,sp,80
    80002638:	8082                	ret

000000008000263a <waitx>:

// waitx
int waitx(uint64 addr, uint *wtime, uint *rtime)
{
    8000263a:	711d                	addi	sp,sp,-96
    8000263c:	ec86                	sd	ra,88(sp)
    8000263e:	e8a2                	sd	s0,80(sp)
    80002640:	e4a6                	sd	s1,72(sp)
    80002642:	e0ca                	sd	s2,64(sp)
    80002644:	fc4e                	sd	s3,56(sp)
    80002646:	f852                	sd	s4,48(sp)
    80002648:	f456                	sd	s5,40(sp)
    8000264a:	f05a                	sd	s6,32(sp)
    8000264c:	ec5e                	sd	s7,24(sp)
    8000264e:	e862                	sd	s8,16(sp)
    80002650:	e466                	sd	s9,8(sp)
    80002652:	e06a                	sd	s10,0(sp)
    80002654:	1080                	addi	s0,sp,96
    80002656:	8b2a                	mv	s6,a0
    80002658:	8bae                	mv	s7,a1
    8000265a:	8c32                	mv	s8,a2
  struct proc *np;
  int havekids, pid;
  struct proc *p = myproc();
    8000265c:	fffff097          	auipc	ra,0xfffff
    80002660:	350080e7          	jalr	848(ra) # 800019ac <myproc>
    80002664:	892a                	mv	s2,a0

  acquire(&wait_lock);
    80002666:	0000e517          	auipc	a0,0xe
    8000266a:	52250513          	addi	a0,a0,1314 # 80010b88 <wait_lock>
    8000266e:	ffffe097          	auipc	ra,0xffffe
    80002672:	568080e7          	jalr	1384(ra) # 80000bd6 <acquire>

  for (;;)
  {
    // Scan through table looking for exited children.
    havekids = 0;
    80002676:	4c81                	li	s9,0
      {
        // make sure the child isn't still in exit() or swtch().
        acquire(&np->lock);

        havekids = 1;
        if (np->state == ZOMBIE)
    80002678:	4a15                	li	s4,5
        havekids = 1;
    8000267a:	4a85                	li	s5,1
    for (np = proc; np < &proc[NPROC]; np++)
    8000267c:	00019997          	auipc	s3,0x19
    80002680:	3a498993          	addi	s3,s3,932 # 8001ba20 <tickslock>
      release(&wait_lock);
      return -1;
    }

    // Wait for a child to exit.
    sleep(p, &wait_lock); // DOC: wait-sleep
    80002684:	0000ed17          	auipc	s10,0xe
    80002688:	504d0d13          	addi	s10,s10,1284 # 80010b88 <wait_lock>
    havekids = 0;
    8000268c:	8766                	mv	a4,s9
    for (np = proc; np < &proc[NPROC]; np++)
    8000268e:	00012497          	auipc	s1,0x12
    80002692:	79248493          	addi	s1,s1,1938 # 80014e20 <proc>
    80002696:	a059                	j	8000271c <waitx+0xe2>
          pid = np->pid;
    80002698:	0304a983          	lw	s3,48(s1)
          *rtime = np->rtime;
    8000269c:	1684a703          	lw	a4,360(s1)
    800026a0:	00ec2023          	sw	a4,0(s8)
          *wtime = np->etime - np->ctime - np->rtime;
    800026a4:	16c4a783          	lw	a5,364(s1)
    800026a8:	9f3d                	addw	a4,a4,a5
    800026aa:	1704a783          	lw	a5,368(s1)
    800026ae:	9f99                	subw	a5,a5,a4
    800026b0:	00fba023          	sw	a5,0(s7)
          if (addr != 0 && copyout(p->pagetable, addr, (char *)&np->xstate,
    800026b4:	000b0e63          	beqz	s6,800026d0 <waitx+0x96>
    800026b8:	4691                	li	a3,4
    800026ba:	02c48613          	addi	a2,s1,44
    800026be:	85da                	mv	a1,s6
    800026c0:	05093503          	ld	a0,80(s2)
    800026c4:	fffff097          	auipc	ra,0xfffff
    800026c8:	fa4080e7          	jalr	-92(ra) # 80001668 <copyout>
    800026cc:	02054563          	bltz	a0,800026f6 <waitx+0xbc>
          freeproc(np);
    800026d0:	8526                	mv	a0,s1
    800026d2:	fffff097          	auipc	ra,0xfffff
    800026d6:	48c080e7          	jalr	1164(ra) # 80001b5e <freeproc>
          release(&np->lock);
    800026da:	8526                	mv	a0,s1
    800026dc:	ffffe097          	auipc	ra,0xffffe
    800026e0:	5ae080e7          	jalr	1454(ra) # 80000c8a <release>
          release(&wait_lock);
    800026e4:	0000e517          	auipc	a0,0xe
    800026e8:	4a450513          	addi	a0,a0,1188 # 80010b88 <wait_lock>
    800026ec:	ffffe097          	auipc	ra,0xffffe
    800026f0:	59e080e7          	jalr	1438(ra) # 80000c8a <release>
          return pid;
    800026f4:	a09d                	j	8000275a <waitx+0x120>
            release(&np->lock);
    800026f6:	8526                	mv	a0,s1
    800026f8:	ffffe097          	auipc	ra,0xffffe
    800026fc:	592080e7          	jalr	1426(ra) # 80000c8a <release>
            release(&wait_lock);
    80002700:	0000e517          	auipc	a0,0xe
    80002704:	48850513          	addi	a0,a0,1160 # 80010b88 <wait_lock>
    80002708:	ffffe097          	auipc	ra,0xffffe
    8000270c:	582080e7          	jalr	1410(ra) # 80000c8a <release>
            return -1;
    80002710:	59fd                	li	s3,-1
    80002712:	a0a1                	j	8000275a <waitx+0x120>
    for (np = proc; np < &proc[NPROC]; np++)
    80002714:	1b048493          	addi	s1,s1,432
    80002718:	03348463          	beq	s1,s3,80002740 <waitx+0x106>
      if (np->parent == p)
    8000271c:	7c9c                	ld	a5,56(s1)
    8000271e:	ff279be3          	bne	a5,s2,80002714 <waitx+0xda>
        acquire(&np->lock);
    80002722:	8526                	mv	a0,s1
    80002724:	ffffe097          	auipc	ra,0xffffe
    80002728:	4b2080e7          	jalr	1202(ra) # 80000bd6 <acquire>
        if (np->state == ZOMBIE)
    8000272c:	4c9c                	lw	a5,24(s1)
    8000272e:	f74785e3          	beq	a5,s4,80002698 <waitx+0x5e>
        release(&np->lock);
    80002732:	8526                	mv	a0,s1
    80002734:	ffffe097          	auipc	ra,0xffffe
    80002738:	556080e7          	jalr	1366(ra) # 80000c8a <release>
        havekids = 1;
    8000273c:	8756                	mv	a4,s5
    8000273e:	bfd9                	j	80002714 <waitx+0xda>
    if (!havekids || p->killed)
    80002740:	c701                	beqz	a4,80002748 <waitx+0x10e>
    80002742:	02892783          	lw	a5,40(s2)
    80002746:	cb8d                	beqz	a5,80002778 <waitx+0x13e>
      release(&wait_lock);
    80002748:	0000e517          	auipc	a0,0xe
    8000274c:	44050513          	addi	a0,a0,1088 # 80010b88 <wait_lock>
    80002750:	ffffe097          	auipc	ra,0xffffe
    80002754:	53a080e7          	jalr	1338(ra) # 80000c8a <release>
      return -1;
    80002758:	59fd                	li	s3,-1
  }
}
    8000275a:	854e                	mv	a0,s3
    8000275c:	60e6                	ld	ra,88(sp)
    8000275e:	6446                	ld	s0,80(sp)
    80002760:	64a6                	ld	s1,72(sp)
    80002762:	6906                	ld	s2,64(sp)
    80002764:	79e2                	ld	s3,56(sp)
    80002766:	7a42                	ld	s4,48(sp)
    80002768:	7aa2                	ld	s5,40(sp)
    8000276a:	7b02                	ld	s6,32(sp)
    8000276c:	6be2                	ld	s7,24(sp)
    8000276e:	6c42                	ld	s8,16(sp)
    80002770:	6ca2                	ld	s9,8(sp)
    80002772:	6d02                	ld	s10,0(sp)
    80002774:	6125                	addi	sp,sp,96
    80002776:	8082                	ret
    sleep(p, &wait_lock); // DOC: wait-sleep
    80002778:	85ea                	mv	a1,s10
    8000277a:	854a                	mv	a0,s2
    8000277c:	00000097          	auipc	ra,0x0
    80002780:	950080e7          	jalr	-1712(ra) # 800020cc <sleep>
    havekids = 0;
    80002784:	b721                	j	8000268c <waitx+0x52>

0000000080002786 <update_time>:

void update_time()
{
    80002786:	7179                	addi	sp,sp,-48
    80002788:	f406                	sd	ra,40(sp)
    8000278a:	f022                	sd	s0,32(sp)
    8000278c:	ec26                	sd	s1,24(sp)
    8000278e:	e84a                	sd	s2,16(sp)
    80002790:	e44e                	sd	s3,8(sp)
    80002792:	1800                	addi	s0,sp,48
  struct proc *p;
  for (p = proc; p < &proc[NPROC]; p++)
    80002794:	00012497          	auipc	s1,0x12
    80002798:	68c48493          	addi	s1,s1,1676 # 80014e20 <proc>
  { 
    acquire(&p->lock);
    if (p->state == RUNNING)
    8000279c:	4991                	li	s3,4
  for (p = proc; p < &proc[NPROC]; p++)
    8000279e:	00019917          	auipc	s2,0x19
    800027a2:	28290913          	addi	s2,s2,642 # 8001ba20 <tickslock>
    800027a6:	a811                	j	800027ba <update_time+0x34>
      
      
      
      
    }
    release(&p->lock);
    800027a8:	8526                	mv	a0,s1
    800027aa:	ffffe097          	auipc	ra,0xffffe
    800027ae:	4e0080e7          	jalr	1248(ra) # 80000c8a <release>
  for (p = proc; p < &proc[NPROC]; p++)
    800027b2:	1b048493          	addi	s1,s1,432
    800027b6:	03248063          	beq	s1,s2,800027d6 <update_time+0x50>
    acquire(&p->lock);
    800027ba:	8526                	mv	a0,s1
    800027bc:	ffffe097          	auipc	ra,0xffffe
    800027c0:	41a080e7          	jalr	1050(ra) # 80000bd6 <acquire>
    if (p->state == RUNNING)
    800027c4:	4c9c                	lw	a5,24(s1)
    800027c6:	ff3791e3          	bne	a5,s3,800027a8 <update_time+0x22>
      p->rtime++;
    800027ca:	1684a783          	lw	a5,360(s1)
    800027ce:	2785                	addiw	a5,a5,1
    800027d0:	16f4a423          	sw	a5,360(s1)
    800027d4:	bfd1                	j	800027a8 <update_time+0x22>
  }

}
    800027d6:	70a2                	ld	ra,40(sp)
    800027d8:	7402                	ld	s0,32(sp)
    800027da:	64e2                	ld	s1,24(sp)
    800027dc:	6942                	ld	s2,16(sp)
    800027de:	69a2                	ld	s3,8(sp)
    800027e0:	6145                	addi	sp,sp,48
    800027e2:	8082                	ret

00000000800027e4 <swtch>:
    800027e4:	00153023          	sd	ra,0(a0)
    800027e8:	00253423          	sd	sp,8(a0)
    800027ec:	e900                	sd	s0,16(a0)
    800027ee:	ed04                	sd	s1,24(a0)
    800027f0:	03253023          	sd	s2,32(a0)
    800027f4:	03353423          	sd	s3,40(a0)
    800027f8:	03453823          	sd	s4,48(a0)
    800027fc:	03553c23          	sd	s5,56(a0)
    80002800:	05653023          	sd	s6,64(a0)
    80002804:	05753423          	sd	s7,72(a0)
    80002808:	05853823          	sd	s8,80(a0)
    8000280c:	05953c23          	sd	s9,88(a0)
    80002810:	07a53023          	sd	s10,96(a0)
    80002814:	07b53423          	sd	s11,104(a0)
    80002818:	0005b083          	ld	ra,0(a1)
    8000281c:	0085b103          	ld	sp,8(a1)
    80002820:	6980                	ld	s0,16(a1)
    80002822:	6d84                	ld	s1,24(a1)
    80002824:	0205b903          	ld	s2,32(a1)
    80002828:	0285b983          	ld	s3,40(a1)
    8000282c:	0305ba03          	ld	s4,48(a1)
    80002830:	0385ba83          	ld	s5,56(a1)
    80002834:	0405bb03          	ld	s6,64(a1)
    80002838:	0485bb83          	ld	s7,72(a1)
    8000283c:	0505bc03          	ld	s8,80(a1)
    80002840:	0585bc83          	ld	s9,88(a1)
    80002844:	0605bd03          	ld	s10,96(a1)
    80002848:	0685bd83          	ld	s11,104(a1)
    8000284c:	8082                	ret

000000008000284e <trapinit>:
void kernelvec();

extern int devintr();

void trapinit(void)
{
    8000284e:	1141                	addi	sp,sp,-16
    80002850:	e406                	sd	ra,8(sp)
    80002852:	e022                	sd	s0,0(sp)
    80002854:	0800                	addi	s0,sp,16
  initlock(&tickslock, "time");
    80002856:	00006597          	auipc	a1,0x6
    8000285a:	aa258593          	addi	a1,a1,-1374 # 800082f8 <states.0+0x30>
    8000285e:	00019517          	auipc	a0,0x19
    80002862:	1c250513          	addi	a0,a0,450 # 8001ba20 <tickslock>
    80002866:	ffffe097          	auipc	ra,0xffffe
    8000286a:	2e0080e7          	jalr	736(ra) # 80000b46 <initlock>
}
    8000286e:	60a2                	ld	ra,8(sp)
    80002870:	6402                	ld	s0,0(sp)
    80002872:	0141                	addi	sp,sp,16
    80002874:	8082                	ret

0000000080002876 <trapinithart>:

// set up to take exceptions and traps while in the kernel.
void trapinithart(void)
{
    80002876:	1141                	addi	sp,sp,-16
    80002878:	e422                	sd	s0,8(sp)
    8000287a:	0800                	addi	s0,sp,16
  asm volatile("csrw stvec, %0" : : "r" (x));
    8000287c:	00003797          	auipc	a5,0x3
    80002880:	6e478793          	addi	a5,a5,1764 # 80005f60 <kernelvec>
    80002884:	10579073          	csrw	stvec,a5
  w_stvec((uint64)kernelvec);
}
    80002888:	6422                	ld	s0,8(sp)
    8000288a:	0141                	addi	sp,sp,16
    8000288c:	8082                	ret

000000008000288e <usertrapret>:

//
// return to user space
//
void usertrapret(void)
{
    8000288e:	1141                	addi	sp,sp,-16
    80002890:	e406                	sd	ra,8(sp)
    80002892:	e022                	sd	s0,0(sp)
    80002894:	0800                	addi	s0,sp,16
  struct proc *p = myproc();
    80002896:	fffff097          	auipc	ra,0xfffff
    8000289a:	116080e7          	jalr	278(ra) # 800019ac <myproc>
  asm volatile("csrr %0, sstatus" : "=r" (x) );
    8000289e:	100027f3          	csrr	a5,sstatus
  w_sstatus(r_sstatus() & ~SSTATUS_SIE);
    800028a2:	9bf5                	andi	a5,a5,-3
  asm volatile("csrw sstatus, %0" : : "r" (x));
    800028a4:	10079073          	csrw	sstatus,a5
  // kerneltrap() to usertrap(), so turn off interrupts until
  // we're back in user space, where usertrap() is correct.
  intr_off();

  // send syscalls, interrupts, and exceptions to uservec in trampoline.S
  uint64 trampoline_uservec = TRAMPOLINE + (uservec - trampoline);
    800028a8:	00004617          	auipc	a2,0x4
    800028ac:	75860613          	addi	a2,a2,1880 # 80007000 <_trampoline>
    800028b0:	00004697          	auipc	a3,0x4
    800028b4:	75068693          	addi	a3,a3,1872 # 80007000 <_trampoline>
    800028b8:	8e91                	sub	a3,a3,a2
    800028ba:	040007b7          	lui	a5,0x4000
    800028be:	17fd                	addi	a5,a5,-1
    800028c0:	07b2                	slli	a5,a5,0xc
    800028c2:	96be                	add	a3,a3,a5
  asm volatile("csrw stvec, %0" : : "r" (x));
    800028c4:	10569073          	csrw	stvec,a3
  w_stvec(trampoline_uservec);

  // set up trapframe values that uservec will need when
  // the process next traps into the kernel.
  p->trapframe->kernel_satp = r_satp();         // kernel page table
    800028c8:	6d38                	ld	a4,88(a0)
  asm volatile("csrr %0, satp" : "=r" (x) );
    800028ca:	180026f3          	csrr	a3,satp
    800028ce:	e314                	sd	a3,0(a4)
  p->trapframe->kernel_sp = p->kstack + PGSIZE; // process's kernel stack
    800028d0:	6d38                	ld	a4,88(a0)
    800028d2:	6134                	ld	a3,64(a0)
    800028d4:	6585                	lui	a1,0x1
    800028d6:	96ae                	add	a3,a3,a1
    800028d8:	e714                	sd	a3,8(a4)
  p->trapframe->kernel_trap = (uint64)usertrap;
    800028da:	6d38                	ld	a4,88(a0)
    800028dc:	00000697          	auipc	a3,0x0
    800028e0:	13e68693          	addi	a3,a3,318 # 80002a1a <usertrap>
    800028e4:	eb14                	sd	a3,16(a4)
  p->trapframe->kernel_hartid = r_tp(); // hartid for cpuid()
    800028e6:	6d38                	ld	a4,88(a0)
  asm volatile("mv %0, tp" : "=r" (x) );
    800028e8:	8692                	mv	a3,tp
    800028ea:	f314                	sd	a3,32(a4)
  asm volatile("csrr %0, sstatus" : "=r" (x) );
    800028ec:	100026f3          	csrr	a3,sstatus
  // set up the registers that trampoline.S's sret will use
  // to get to user space.

  // set S Previous Privilege mode to User.
  unsigned long x = r_sstatus();
  x &= ~SSTATUS_SPP; // clear SPP to 0 for user mode
    800028f0:	eff6f693          	andi	a3,a3,-257
  x |= SSTATUS_SPIE; // enable interrupts in user mode
    800028f4:	0206e693          	ori	a3,a3,32
  asm volatile("csrw sstatus, %0" : : "r" (x));
    800028f8:	10069073          	csrw	sstatus,a3
  w_sstatus(x);

  // set S Exception Program Counter to the saved user pc.
  w_sepc(p->trapframe->epc);
    800028fc:	6d38                	ld	a4,88(a0)
  asm volatile("csrw sepc, %0" : : "r" (x));
    800028fe:	6f18                	ld	a4,24(a4)
    80002900:	14171073          	csrw	sepc,a4

  // tell trampoline.S the user page table to switch to.
  uint64 satp = MAKE_SATP(p->pagetable);
    80002904:	6928                	ld	a0,80(a0)
    80002906:	8131                	srli	a0,a0,0xc

  // jump to userret in trampoline.S at the top of memory, which
  // switches to the user page table, restores user registers,
  // and switches to user mode with sret.
  uint64 trampoline_userret = TRAMPOLINE + (userret - trampoline);
    80002908:	00004717          	auipc	a4,0x4
    8000290c:	79470713          	addi	a4,a4,1940 # 8000709c <userret>
    80002910:	8f11                	sub	a4,a4,a2
    80002912:	97ba                	add	a5,a5,a4
  ((void (*)(uint64))trampoline_userret)(satp);
    80002914:	577d                	li	a4,-1
    80002916:	177e                	slli	a4,a4,0x3f
    80002918:	8d59                	or	a0,a0,a4
    8000291a:	9782                	jalr	a5

 
  

 
}
    8000291c:	60a2                	ld	ra,8(sp)
    8000291e:	6402                	ld	s0,0(sp)
    80002920:	0141                	addi	sp,sp,16
    80002922:	8082                	ret

0000000080002924 <clockintr>:
  w_sepc(sepc);
  w_sstatus(sstatus);
}

void clockintr()
{
    80002924:	1101                	addi	sp,sp,-32
    80002926:	ec06                	sd	ra,24(sp)
    80002928:	e822                	sd	s0,16(sp)
    8000292a:	e426                	sd	s1,8(sp)
    8000292c:	e04a                	sd	s2,0(sp)
    8000292e:	1000                	addi	s0,sp,32
  acquire(&tickslock);
    80002930:	00019917          	auipc	s2,0x19
    80002934:	0f090913          	addi	s2,s2,240 # 8001ba20 <tickslock>
    80002938:	854a                	mv	a0,s2
    8000293a:	ffffe097          	auipc	ra,0xffffe
    8000293e:	29c080e7          	jalr	668(ra) # 80000bd6 <acquire>
  ticks++;
    80002942:	00006497          	auipc	s1,0x6
    80002946:	fba48493          	addi	s1,s1,-70 # 800088fc <ticks>
    8000294a:	409c                	lw	a5,0(s1)
    8000294c:	2785                	addiw	a5,a5,1
    8000294e:	c09c                	sw	a5,0(s1)
  update_time();
    80002950:	00000097          	auipc	ra,0x0
    80002954:	e36080e7          	jalr	-458(ra) # 80002786 <update_time>
  //   // {
  //   //   p->wtime++;
  //   // }
  //   release(&p->lock);
  // }
  wakeup(&ticks);
    80002958:	8526                	mv	a0,s1
    8000295a:	fffff097          	auipc	ra,0xfffff
    8000295e:	7d6080e7          	jalr	2006(ra) # 80002130 <wakeup>
  release(&tickslock);
    80002962:	854a                	mv	a0,s2
    80002964:	ffffe097          	auipc	ra,0xffffe
    80002968:	326080e7          	jalr	806(ra) # 80000c8a <release>
}
    8000296c:	60e2                	ld	ra,24(sp)
    8000296e:	6442                	ld	s0,16(sp)
    80002970:	64a2                	ld	s1,8(sp)
    80002972:	6902                	ld	s2,0(sp)
    80002974:	6105                	addi	sp,sp,32
    80002976:	8082                	ret

0000000080002978 <devintr>:
// and handle it.
// returns 2 if timer interrupt,
// 1 if other device,
// 0 if not recognized.
int devintr()
{
    80002978:	1101                	addi	sp,sp,-32
    8000297a:	ec06                	sd	ra,24(sp)
    8000297c:	e822                	sd	s0,16(sp)
    8000297e:	e426                	sd	s1,8(sp)
    80002980:	1000                	addi	s0,sp,32
  asm volatile("csrr %0, scause" : "=r" (x) );
    80002982:	14202773          	csrr	a4,scause
  uint64 scause = r_scause();

  if ((scause & 0x8000000000000000L) &&
    80002986:	00074d63          	bltz	a4,800029a0 <devintr+0x28>
    if (irq)
      plic_complete(irq);

    return 1;
  }
  else if (scause == 0x8000000000000001L)
    8000298a:	57fd                	li	a5,-1
    8000298c:	17fe                	slli	a5,a5,0x3f
    8000298e:	0785                	addi	a5,a5,1

    return 2;
  }
  else
  {
    return 0;
    80002990:	4501                	li	a0,0
  else if (scause == 0x8000000000000001L)
    80002992:	06f70363          	beq	a4,a5,800029f8 <devintr+0x80>
  }
}
    80002996:	60e2                	ld	ra,24(sp)
    80002998:	6442                	ld	s0,16(sp)
    8000299a:	64a2                	ld	s1,8(sp)
    8000299c:	6105                	addi	sp,sp,32
    8000299e:	8082                	ret
      (scause & 0xff) == 9)
    800029a0:	0ff77793          	andi	a5,a4,255
  if ((scause & 0x8000000000000000L) &&
    800029a4:	46a5                	li	a3,9
    800029a6:	fed792e3          	bne	a5,a3,8000298a <devintr+0x12>
    int irq = plic_claim();
    800029aa:	00003097          	auipc	ra,0x3
    800029ae:	6be080e7          	jalr	1726(ra) # 80006068 <plic_claim>
    800029b2:	84aa                	mv	s1,a0
    if (irq == UART0_IRQ)
    800029b4:	47a9                	li	a5,10
    800029b6:	02f50763          	beq	a0,a5,800029e4 <devintr+0x6c>
    else if (irq == VIRTIO0_IRQ)
    800029ba:	4785                	li	a5,1
    800029bc:	02f50963          	beq	a0,a5,800029ee <devintr+0x76>
    return 1;
    800029c0:	4505                	li	a0,1
    else if (irq)
    800029c2:	d8f1                	beqz	s1,80002996 <devintr+0x1e>
      printf("unexpected interrupt irq=%d\n", irq);
    800029c4:	85a6                	mv	a1,s1
    800029c6:	00006517          	auipc	a0,0x6
    800029ca:	93a50513          	addi	a0,a0,-1734 # 80008300 <states.0+0x38>
    800029ce:	ffffe097          	auipc	ra,0xffffe
    800029d2:	bba080e7          	jalr	-1094(ra) # 80000588 <printf>
      plic_complete(irq);
    800029d6:	8526                	mv	a0,s1
    800029d8:	00003097          	auipc	ra,0x3
    800029dc:	6b4080e7          	jalr	1716(ra) # 8000608c <plic_complete>
    return 1;
    800029e0:	4505                	li	a0,1
    800029e2:	bf55                	j	80002996 <devintr+0x1e>
      uartintr();
    800029e4:	ffffe097          	auipc	ra,0xffffe
    800029e8:	fb6080e7          	jalr	-74(ra) # 8000099a <uartintr>
    800029ec:	b7ed                	j	800029d6 <devintr+0x5e>
      virtio_disk_intr();
    800029ee:	00004097          	auipc	ra,0x4
    800029f2:	b6a080e7          	jalr	-1174(ra) # 80006558 <virtio_disk_intr>
    800029f6:	b7c5                	j	800029d6 <devintr+0x5e>
    if (cpuid() == 0)
    800029f8:	fffff097          	auipc	ra,0xfffff
    800029fc:	f88080e7          	jalr	-120(ra) # 80001980 <cpuid>
    80002a00:	c901                	beqz	a0,80002a10 <devintr+0x98>
  asm volatile("csrr %0, sip" : "=r" (x) );
    80002a02:	144027f3          	csrr	a5,sip
    w_sip(r_sip() & ~2);
    80002a06:	9bf5                	andi	a5,a5,-3
  asm volatile("csrw sip, %0" : : "r" (x));
    80002a08:	14479073          	csrw	sip,a5
    return 2;
    80002a0c:	4509                	li	a0,2
    80002a0e:	b761                	j	80002996 <devintr+0x1e>
      clockintr();
    80002a10:	00000097          	auipc	ra,0x0
    80002a14:	f14080e7          	jalr	-236(ra) # 80002924 <clockintr>
    80002a18:	b7ed                	j	80002a02 <devintr+0x8a>

0000000080002a1a <usertrap>:
{
    80002a1a:	1101                	addi	sp,sp,-32
    80002a1c:	ec06                	sd	ra,24(sp)
    80002a1e:	e822                	sd	s0,16(sp)
    80002a20:	e426                	sd	s1,8(sp)
    80002a22:	e04a                	sd	s2,0(sp)
    80002a24:	1000                	addi	s0,sp,32
  asm volatile("csrr %0, sstatus" : "=r" (x) );
    80002a26:	100027f3          	csrr	a5,sstatus
  if ((r_sstatus() & SSTATUS_SPP) != 0)
    80002a2a:	1007f793          	andi	a5,a5,256
    80002a2e:	efb1                	bnez	a5,80002a8a <usertrap+0x70>
  asm volatile("csrw stvec, %0" : : "r" (x));
    80002a30:	00003797          	auipc	a5,0x3
    80002a34:	53078793          	addi	a5,a5,1328 # 80005f60 <kernelvec>
    80002a38:	10579073          	csrw	stvec,a5
  struct proc *p = myproc();
    80002a3c:	fffff097          	auipc	ra,0xfffff
    80002a40:	f70080e7          	jalr	-144(ra) # 800019ac <myproc>
    80002a44:	84aa                	mv	s1,a0
  p->trapframe->epc = r_sepc();
    80002a46:	6d3c                	ld	a5,88(a0)
  asm volatile("csrr %0, sepc" : "=r" (x) );
    80002a48:	14102773          	csrr	a4,sepc
    80002a4c:	ef98                	sd	a4,24(a5)
  asm volatile("csrr %0, scause" : "=r" (x) );
    80002a4e:	14202773          	csrr	a4,scause
  if (r_scause() == 8)
    80002a52:	47a1                	li	a5,8
    80002a54:	04f70363          	beq	a4,a5,80002a9a <usertrap+0x80>
  else if ((which_dev = devintr()) != 0)
    80002a58:	00000097          	auipc	ra,0x0
    80002a5c:	f20080e7          	jalr	-224(ra) # 80002978 <devintr>
    80002a60:	cd6d                	beqz	a0,80002b5a <usertrap+0x140>
    else if (which_dev == 2 && p->alarm_on == 0) {
    80002a62:	4789                	li	a5,2
    80002a64:	06f50563          	beq	a0,a5,80002ace <usertrap+0xb4>
  if (killed(p))
    80002a68:	8526                	mv	a0,s1
    80002a6a:	00000097          	auipc	ra,0x0
    80002a6e:	916080e7          	jalr	-1770(ra) # 80002380 <killed>
    80002a72:	12051163          	bnez	a0,80002b94 <usertrap+0x17a>
  usertrapret();
    80002a76:	00000097          	auipc	ra,0x0
    80002a7a:	e18080e7          	jalr	-488(ra) # 8000288e <usertrapret>
}
    80002a7e:	60e2                	ld	ra,24(sp)
    80002a80:	6442                	ld	s0,16(sp)
    80002a82:	64a2                	ld	s1,8(sp)
    80002a84:	6902                	ld	s2,0(sp)
    80002a86:	6105                	addi	sp,sp,32
    80002a88:	8082                	ret
    panic("usertrap: not from user mode");
    80002a8a:	00006517          	auipc	a0,0x6
    80002a8e:	89650513          	addi	a0,a0,-1898 # 80008320 <states.0+0x58>
    80002a92:	ffffe097          	auipc	ra,0xffffe
    80002a96:	aac080e7          	jalr	-1364(ra) # 8000053e <panic>
    if (killed(p))
    80002a9a:	00000097          	auipc	ra,0x0
    80002a9e:	8e6080e7          	jalr	-1818(ra) # 80002380 <killed>
    80002aa2:	e105                	bnez	a0,80002ac2 <usertrap+0xa8>
    p->trapframe->epc += 4;
    80002aa4:	6cb8                	ld	a4,88(s1)
    80002aa6:	6f1c                	ld	a5,24(a4)
    80002aa8:	0791                	addi	a5,a5,4
    80002aaa:	ef1c                	sd	a5,24(a4)
  asm volatile("csrr %0, sstatus" : "=r" (x) );
    80002aac:	100027f3          	csrr	a5,sstatus
  w_sstatus(r_sstatus() | SSTATUS_SIE);
    80002ab0:	0027e793          	ori	a5,a5,2
  asm volatile("csrw sstatus, %0" : : "r" (x));
    80002ab4:	10079073          	csrw	sstatus,a5
    syscall();
    80002ab8:	00000097          	auipc	ra,0x0
    80002abc:	332080e7          	jalr	818(ra) # 80002dea <syscall>
    80002ac0:	b765                	j	80002a68 <usertrap+0x4e>
      exit(-1);
    80002ac2:	557d                	li	a0,-1
    80002ac4:	fffff097          	auipc	ra,0xfffff
    80002ac8:	73c080e7          	jalr	1852(ra) # 80002200 <exit>
    80002acc:	bfe1                	j	80002aa4 <usertrap+0x8a>
    else if (which_dev == 2 && p->alarm_on == 0) {
    80002ace:	1884a903          	lw	s2,392(s1)
    80002ad2:	04091863          	bnez	s2,80002b22 <usertrap+0x108>
      p->alarm_on = 1;
    80002ad6:	4785                	li	a5,1
    80002ad8:	18f4a423          	sw	a5,392(s1)
     if ((p->temp_ticks - ticks) >= p->maxticks){
    80002adc:	18c4a783          	lw	a5,396(s1)
    80002ae0:	00006717          	auipc	a4,0x6
    80002ae4:	e1c72703          	lw	a4,-484(a4) # 800088fc <ticks>
    80002ae8:	9f99                	subw	a5,a5,a4
    80002aea:	1784a703          	lw	a4,376(s1)
    80002aee:	00e7e963          	bltu	a5,a4,80002b00 <usertrap+0xe6>
          p->address = 0;
    80002af2:	1604ae23          	sw	zero,380(s1)
          p->temp_ticks = 0;
    80002af6:	1804a623          	sw	zero,396(s1)
          p->maxticks = 0;
    80002afa:	1604ac23          	sw	zero,376(s1)
          flag = 1;
    80002afe:	4905                	li	s2,1
      p->temp_trapframe = kalloc();
    80002b00:	ffffe097          	auipc	ra,0xffffe
    80002b04:	fe6080e7          	jalr	-26(ra) # 80000ae6 <kalloc>
    80002b08:	18a4b023          	sd	a0,384(s1)
     if(p->temp_trapframe && p->trapframe){
    80002b0c:	d92d                	beqz	a0,80002a7e <usertrap+0x64>
    80002b0e:	6cac                	ld	a1,88(s1)
    80002b10:	d5bd                	beqz	a1,80002a7e <usertrap+0x64>
     memmove(p->temp_trapframe, p->trapframe, 4096);
    80002b12:	6605                	lui	a2,0x1
    80002b14:	ffffe097          	auipc	ra,0xffffe
    80002b18:	21a080e7          	jalr	538(ra) # 80000d2e <memmove>
     if(flag == 1){
    80002b1c:	4785                	li	a5,1
    80002b1e:	00f90d63          	beq	s2,a5,80002b38 <usertrap+0x11e>
  if (killed(p))
    80002b22:	8526                	mv	a0,s1
    80002b24:	00000097          	auipc	ra,0x0
    80002b28:	85c080e7          	jalr	-1956(ra) # 80002380 <killed>
    80002b2c:	e525                	bnez	a0,80002b94 <usertrap+0x17a>
  yield();
    80002b2e:	fffff097          	auipc	ra,0xfffff
    80002b32:	562080e7          	jalr	1378(ra) # 80002090 <yield>
    80002b36:	b781                	j	80002a76 <usertrap+0x5c>
      p->trapframe->a0 = tf_a0;
    80002b38:	6cbc                	ld	a5,88(s1)
      int tf_a0 = p->temp_trapframe->a0;
    80002b3a:	1804b703          	ld	a4,384(s1)
      p->trapframe->a0 = tf_a0;
    80002b3e:	5b38                	lw	a4,112(a4)
    80002b40:	fbb8                	sd	a4,112(a5)
      if(p->temp_address!=p->address){
    80002b42:	1904a783          	lw	a5,400(s1)
    80002b46:	17c4a703          	lw	a4,380(s1)
    80002b4a:	00e78563          	beq	a5,a4,80002b54 <usertrap+0x13a>
       p->trapframe->epc = p->temp_address;
    80002b4e:	6cb8                	ld	a4,88(s1)
    80002b50:	ef1c                	sd	a5,24(a4)
    80002b52:	bfc1                	j	80002b22 <usertrap+0x108>
         p->trapframe->epc = p->address;
    80002b54:	6cbc                	ld	a5,88(s1)
    80002b56:	ef98                	sd	a4,24(a5)
    80002b58:	b7e9                	j	80002b22 <usertrap+0x108>
  asm volatile("csrr %0, scause" : "=r" (x) );
    80002b5a:	142025f3          	csrr	a1,scause
    printf("usertrap(): unexpected scause %p pid=%d\n", r_scause(), p->pid);
    80002b5e:	5890                	lw	a2,48(s1)
    80002b60:	00005517          	auipc	a0,0x5
    80002b64:	7e050513          	addi	a0,a0,2016 # 80008340 <states.0+0x78>
    80002b68:	ffffe097          	auipc	ra,0xffffe
    80002b6c:	a20080e7          	jalr	-1504(ra) # 80000588 <printf>
  asm volatile("csrr %0, sepc" : "=r" (x) );
    80002b70:	141025f3          	csrr	a1,sepc
  asm volatile("csrr %0, stval" : "=r" (x) );
    80002b74:	14302673          	csrr	a2,stval
    printf("            sepc=%p stval=%p\n", r_sepc(), r_stval());
    80002b78:	00005517          	auipc	a0,0x5
    80002b7c:	7f850513          	addi	a0,a0,2040 # 80008370 <states.0+0xa8>
    80002b80:	ffffe097          	auipc	ra,0xffffe
    80002b84:	a08080e7          	jalr	-1528(ra) # 80000588 <printf>
    setkilled(p);
    80002b88:	8526                	mv	a0,s1
    80002b8a:	fffff097          	auipc	ra,0xfffff
    80002b8e:	7ca080e7          	jalr	1994(ra) # 80002354 <setkilled>
    80002b92:	bdd9                	j	80002a68 <usertrap+0x4e>
    exit(-1);
    80002b94:	557d                	li	a0,-1
    80002b96:	fffff097          	auipc	ra,0xfffff
    80002b9a:	66a080e7          	jalr	1642(ra) # 80002200 <exit>
    80002b9e:	bde1                	j	80002a76 <usertrap+0x5c>

0000000080002ba0 <kerneltrap>:
{
    80002ba0:	7179                	addi	sp,sp,-48
    80002ba2:	f406                	sd	ra,40(sp)
    80002ba4:	f022                	sd	s0,32(sp)
    80002ba6:	ec26                	sd	s1,24(sp)
    80002ba8:	e84a                	sd	s2,16(sp)
    80002baa:	e44e                	sd	s3,8(sp)
    80002bac:	1800                	addi	s0,sp,48
  asm volatile("csrr %0, sepc" : "=r" (x) );
    80002bae:	14102973          	csrr	s2,sepc
  asm volatile("csrr %0, sstatus" : "=r" (x) );
    80002bb2:	100024f3          	csrr	s1,sstatus
  asm volatile("csrr %0, scause" : "=r" (x) );
    80002bb6:	142029f3          	csrr	s3,scause
  if ((sstatus & SSTATUS_SPP) == 0)
    80002bba:	1004f793          	andi	a5,s1,256
    80002bbe:	cb85                	beqz	a5,80002bee <kerneltrap+0x4e>
  asm volatile("csrr %0, sstatus" : "=r" (x) );
    80002bc0:	100027f3          	csrr	a5,sstatus
  return (x & SSTATUS_SIE) != 0;
    80002bc4:	8b89                	andi	a5,a5,2
  if (intr_get() != 0)
    80002bc6:	ef85                	bnez	a5,80002bfe <kerneltrap+0x5e>
  if ((which_dev = devintr()) == 0)
    80002bc8:	00000097          	auipc	ra,0x0
    80002bcc:	db0080e7          	jalr	-592(ra) # 80002978 <devintr>
    80002bd0:	cd1d                	beqz	a0,80002c0e <kerneltrap+0x6e>
  if (which_dev == 2 && myproc() != 0 && myproc()->state == RUNNING)
    80002bd2:	4789                	li	a5,2
    80002bd4:	06f50a63          	beq	a0,a5,80002c48 <kerneltrap+0xa8>
  asm volatile("csrw sepc, %0" : : "r" (x));
    80002bd8:	14191073          	csrw	sepc,s2
  asm volatile("csrw sstatus, %0" : : "r" (x));
    80002bdc:	10049073          	csrw	sstatus,s1
}
    80002be0:	70a2                	ld	ra,40(sp)
    80002be2:	7402                	ld	s0,32(sp)
    80002be4:	64e2                	ld	s1,24(sp)
    80002be6:	6942                	ld	s2,16(sp)
    80002be8:	69a2                	ld	s3,8(sp)
